target datalayout = "e-m:e-i64:64-f80:128-n8:16:32:64-S128"
target triple = "x86_64-pc-linux-gnu"

%struct.data1 = type { [8 x %struct.tftpConnType], [8 x i32], [8 x i32], [8 x i32], [8 x i16], i8, i8, i32 }
%struct.tftpConnType = type { i32, %struct.sockaddr_in, i32, i16, i8, i8 }
%struct.sockaddr_in = type { i16, i16, %struct.in_addr, [8 x i8] }
%struct.in_addr = type { i32 }
%struct.data2 = type { [32 x %struct.data12], [8 x %struct.home], %struct._IO_FILE*, [128 x i8], i32, i32, i8, i8, i8, i32, i32, i32, i8, i32, i32, [8 x %struct.ifreq], i8, i32, [8 x i32], i8 }
%struct.data12 = type { i32, i32 }
%struct.home = type { [64 x i8], [256 x i8] }
%struct._IO_FILE = type { i32, i8*, i8*, i8*, i8*, i8*, i8*, i8*, i8*, i8*, i8*, i8*, %struct._IO_marker*, %struct._IO_FILE*, i32, i32, i64, i16, i8, [1 x i8], i8*, i64, i8*, i8*, i8*, i8*, i64, i32, [20 x i8] }
%struct._IO_marker = type { %struct._IO_marker*, %struct._IO_FILE*, i32 }
%struct.ifreq = type { %union.anon, %union.anon.0 }
%union.anon = type { [16 x i8] }
%union.anon.0 = type { %struct.ifmap }
%struct.ifmap = type { i64, i64, i16, i8, i8, i8 }
%struct.ifconf = type { i32, %union.anon.1 }
%union.anon.1 = type { i8* }
%union.pthread_mutex_t = type { %struct.__pthread_mutex_s }
%struct.__pthread_mutex_s = type { i32, i32, i32, i32, i32, i16, i16, %struct.__pthread_internal_list }
%struct.__pthread_internal_list = type { %struct.__pthread_internal_list*, %struct.__pthread_internal_list* }
%union.pthread_attr_t = type { i64, [48 x i8] }
%struct.timeval = type { i64, i64 }
%struct.fd_set = type { [16 x i64] }
%struct.tm = type { i32, i32, i32, i32, i32, i32, i32, i32, i32, i64, i8* }
%struct.passwd = type { i8*, i8*, i32, i32, i8*, i8*, i8* }
%struct.sockaddr = type { i16, [14 x i8] }
%struct.request = type { %struct.timeval, %struct.fd_set, i64, i32, i32, i8, i8, [256 x i8], %struct._IO_FILE*, i8*, i8*, i8*, i32, i32, i32, i32, [2 x i32], [2 x %struct.packet*], %struct.sockaddr_in, i32, %union.anon.2, %union.anon.3, i16, i16, i16, i16 }
%struct.packet = type { i16, i16, i8 }
%union.anon.2 = type { %struct.tftperror }
%struct.tftperror = type { i16, i16, [512 x i8] }
%union.anon.3 = type { %struct.tftperror }
%struct.message = type { i16, [514 x i8] }
%struct.acknowledgement = type { i16, i16 }
%struct.data15 = type { %union.anon.4 }
%union.anon.4 = type { i32 }

$_ZSt3powIijEN9__gnu_cxx11__promote_2IT_T0_NS0_9__promoteIS2_Xsr3std12__is_integerIS2_EE7__valueEE6__typeENS4_IS3_Xsr3std12__is_integerIS3_EE7__valueEE6__typeEE6__typeES2_S3_ = comdat any

@kRunning = global i8 1, align 1
@verbatim = global i8 0, align 1
@iniFile = global [256 x i8] zeroinitializer, align 16
@logFile = global [256 x i8] zeroinitializer, align 16
@fileSep = global i8 47, align 1
@notFileSep = global i8 92, align 1
@blksize = global i32 65464, align 4
@timeout = global i16 3, align 2
@network = global %struct.data1 zeroinitializer, align 4
@newNetwork = global %struct.data1 zeroinitializer, align 4
@cfig = global %struct.data2 zeroinitializer, align 8
@Ifc = global %struct.ifconf zeroinitializer, align 8
@IfcBuf = global [8 x %struct.ifreq] zeroinitializer, align 16
@logBuff = global [256 x i8] zeroinitializer, align 16
@tempbuff = global [256 x i8] zeroinitializer, align 16
@extbuff = global [256 x i8] zeroinitializer, align 16
@loggingDay = global i16 0, align 2
@sVersion = global [55 x i8] c"TFTP Server MultiThreaded Version 1.65 Unix Built 2002\00", align 16
@threadId = global i64 0, align 8
@minThreads = global i16 1, align 2
@totalThreads = global i16 0, align 2
@activeThreads = global i16 0, align 2
@currentServer = global i32 255, align 4
@mutThread = global %union.pthread_mutex_t zeroinitializer, align 8
@mutSocket = global %union.pthread_mutex_t zeroinitializer, align 8
@mutCount = global %union.pthread_mutex_t zeroinitializer, align 8
@mutLog = global %union.pthread_mutex_t zeroinitializer, align 8
@.str = private unnamed_addr constant [3 x i8] c"-v\00", align 1
@.str.1 = private unnamed_addr constant [3 x i8] c"-i\00", align 1
@.str.2 = private unnamed_addr constant [3 x i8] c"-l\00", align 1
@.str.3 = private unnamed_addr constant [27 x i8] c"Error: Invalid Argument %s\00", align 1
@.str.4 = private unnamed_addr constant [19 x i8] c"/etc/opentftpd.ini\00", align 1
@.str.5 = private unnamed_addr constant [4 x i8] c"%s\0A\00", align 1
@.str.6 = private unnamed_addr constant [49 x i8] c"Error: Main Thread Creation Failed with error %s\00", align 1
@.str.7 = private unnamed_addr constant [26 x i8] c"Thread Creation Error %i\0A\00", align 1
@.str.8 = private unnamed_addr constant [2 x i8] c"/\00", align 1
@.str.9 = private unnamed_addr constant [25 x i8] c"Thread Creation Error %i\00", align 1
@.str.10 = private unnamed_addr constant [31 x i8] c"Closing Network Connections...\00", align 1
@.str.11 = private unnamed_addr constant [22 x i8] c"TFTP Server Stopped !\00", align 1
@.str.12 = private unnamed_addr constant [14 x i8] c"Access Denied\00", align 1
@.str.13 = private unnamed_addr constant [28 x i8] c"Error Code %i at Client, %s\00", align 1
@.str.14 = private unnamed_addr constant [20 x i8] c"Unknown Transfer Id\00", align 1
@.str.15 = private unnamed_addr constant [20 x i8] c"Communication Error\00", align 1
@.str.16 = private unnamed_addr constant [29 x i8] c"Thread Socket Creation Error\00", align 1
@.str.17 = private unnamed_addr constant [16 x i8] c"No port is free\00", align 1
@.str.18 = private unnamed_addr constant [22 x i8] c"Thread failed to bind\00", align 1
@.str.19 = private unnamed_addr constant [15 x i8] c"Connect Failed\00", align 1
@.str.20 = private unnamed_addr constant [44 x i8] c"Malformed Request, Invalid/Missing Filename\00", align 1
@.str.21 = private unnamed_addr constant [40 x i8] c"Malformed Request, Invalid/Missing Mode\00", align 1
@.str.22 = private unnamed_addr constant [17 x i8] c"Access violation\00", align 1
@.str.23 = private unnamed_addr constant [19 x i8] c"Filename too large\00", align 1
@.str.24 = private unnamed_addr constant [24 x i8] c"Missing directory/alias\00", align 1
@.str.25 = private unnamed_addr constant [27 x i8] c"No such directory/alias %s\00", align 1
@.str.26 = private unnamed_addr constant [18 x i8] c"GET Access Denied\00", align 1
@.str.27 = private unnamed_addr constant [8 x i8] c"blksize\00", align 1
@.str.28 = private unnamed_addr constant [9 x i8] c"netascii\00", align 1
@.str.29 = private unnamed_addr constant [6 x i8] c"ascii\00", align 1
@.str.30 = private unnamed_addr constant [3 x i8] c"rt\00", align 1
@.str.31 = private unnamed_addr constant [3 x i8] c"rb\00", align 1
@.str.32 = private unnamed_addr constant [28 x i8] c"File not found or No Access\00", align 1
@.str.33 = private unnamed_addr constant [18 x i8] c"PUT Access Denied\00", align 1
@.str.34 = private unnamed_addr constant [20 x i8] c"File already exists\00", align 1
@.str.35 = private unnamed_addr constant [26 x i8] c"Create File Access Denied\00", align 1
@.str.36 = private unnamed_addr constant [3 x i8] c"wt\00", align 1
@.str.37 = private unnamed_addr constant [3 x i8] c"wb\00", align 1
@.str.38 = private unnamed_addr constant [26 x i8] c"Invalid Path or No Access\00", align 1
@.str.39 = private unnamed_addr constant [3 x i8] c"%u\00", align 1
@.str.40 = private unnamed_addr constant [6 x i8] c"tsize\00", align 1
@.str.41 = private unnamed_addr constant [8 x i8] c"timeout\00", align 1
@.str.42 = private unnamed_addr constant [13 x i8] c"Memory Error\00", align 1
@.str.43 = private unnamed_addr constant [18 x i8] c"File Access Error\00", align 1
@.str.44 = private unnamed_addr constant [42 x i8] c"Client %s:%u, Error Code %i at Client, %s\00", align 1
@.str.45 = private unnamed_addr constant [26 x i8] c"Unexpected Option Code %i\00", align 1
@.str.46 = private unnamed_addr constant [52 x i8] c"Large File, Block# Rollover not supported by Client\00", align 1
@.str.47 = private unnamed_addr constant [8 x i8] c"Timeout\00", align 1
@.str.48 = private unnamed_addr constant [17 x i8] c"%u Blocks Served\00", align 1
@.str.49 = private unnamed_addr constant [33 x i8] c"Disk full or allocation exceeded\00", align 1
@.str.50 = private unnamed_addr constant [19 x i8] c"%u Blocks Received\00", align 1
@.str.51 = private unnamed_addr constant [33 x i8] c"Error: Incoming Packet too large\00", align 1
@.str.52 = private unnamed_addr constant [5 x i8] c"[%s]\00", align 1
@.str.53 = private unnamed_addr constant [2 x i8] c"[\00", align 1
@.str.54 = private unnamed_addr constant [5 x i8] c"/\5C?*\00", align 1
@.str.55 = private unnamed_addr constant [3 x i8] c"%s\00", align 1
@.str.56 = private unnamed_addr constant [12 x i8] c"%u.%u.%u.%u\00", align 1
@.str.57 = private unnamed_addr constant [5 x i8] c"%s\0A\0A\00", align 1
@.str.58 = private unnamed_addr constant [8 x i8] c"LOGGING\00", align 1
@.str.59 = private unnamed_addr constant [5 x i8] c"None\00", align 1
@.str.60 = private unnamed_addr constant [7 x i8] c"Errors\00", align 1
@.str.61 = private unnamed_addr constant [4 x i8] c"All\00", align 1
@.str.62 = private unnamed_addr constant [40 x i8] c"Section [LOGGING], Invalid LogLevel: %s\00", align 1
@.str.63 = private unnamed_addr constant [3 x i8] c"at\00", align 1
@.str.64 = private unnamed_addr constant [14 x i8] c"%s Starting..\00", align 1
@.str.65 = private unnamed_addr constant [50 x i8] c"Warning: file %s not found, defaults will be used\00", align 1
@.str.66 = private unnamed_addr constant [5 x i8] c"HOME\00", align 1
@.str.67 = private unnamed_addr constant [60 x i8] c"Section [HOME], alias and bare path mixup, entry %s ignored\00", align 1
@.str.68 = private unnamed_addr constant [57 x i8] c"Section [HOME], invalid chars in alias %s, entry ignored\00", align 1
@.str.69 = private unnamed_addr constant [44 x i8] c"Section [HOME], Duplicate Entry: %s ignored\00", align 1
@.str.70 = private unnamed_addr constant [40 x i8] c"Section [HOME], alias name %s too large\00", align 1
@.str.71 = private unnamed_addr constant [43 x i8] c"Section [HOME], Duplicate Path: %s ignored\00", align 1
@.str.72 = private unnamed_addr constant [58 x i8] c"Section [HOME], missing = sign, Invalid Entry: %s ignored\00", align 1
@.str.73 = private unnamed_addr constant [13 x i8] c"TFTP-OPTIONS\00", align 1
@.str.74 = private unnamed_addr constant [9 x i8] c"UserName\00", align 1
@.str.75 = private unnamed_addr constant [4 x i8] c"%s/\00", align 1
@.str.76 = private unnamed_addr constant [7 x i8] c"/home/\00", align 1
@.str.77 = private unnamed_addr constant [55 x i8] c"Section [TFTP-OPTIONS], unknown username: %s, stopping\00", align 1
@.str.78 = private unnamed_addr constant [55 x i8] c"Section [TFTP-OPTIONS], invalid username: %s, stopping\00", align 1
@.str.79 = private unnamed_addr constant [15 x i8] c"threadpoolsize\00", align 1
@.str.80 = private unnamed_addr constant [5 x i8] c"Read\00", align 1
@.str.81 = private unnamed_addr constant [3 x i8] c"Yy\00", align 1
@.str.82 = private unnamed_addr constant [6 x i8] c"Write\00", align 1
@.str.83 = private unnamed_addr constant [10 x i8] c"Overwrite\00", align 1
@.str.84 = private unnamed_addr constant [11 x i8] c"port-range\00", align 1
@.str.85 = private unnamed_addr constant [22 x i8] c"Invalid port range %s\00", align 1
@.str.86 = private unnamed_addr constant [36 x i8] c"Warning: unknown option %s, ignored\00", align 1
@.str.87 = private unnamed_addr constant [16 x i8] c"ALLOWED-CLIENTS\00", align 1
@.str.88 = private unnamed_addr constant [64 x i8] c"Section [ALLOWED-CLIENTS] Invalid entry %s in ini file, ignored\00", align 1
@.str.89 = private unnamed_addr constant [13 x i8] c"username: %s\00", align 1
@.str.90 = private unnamed_addr constant [26 x i8] c"alias /%s is mapped to %s\00", align 1
@.str.91 = private unnamed_addr constant [20 x i8] c"permitted clients: \00", align 1
@.str.92 = private unnamed_addr constant [4 x i8] c"%s-\00", align 1
@.str.93 = private unnamed_addr constant [23 x i8] c"permitted clients: all\00", align 1
@.str.94 = private unnamed_addr constant [25 x i8] c"server port range: %u-%u\00", align 1
@.str.95 = private unnamed_addr constant [23 x i8] c"server port range: all\00", align 1
@.str.96 = private unnamed_addr constant [16 x i8] c"max blksize: %u\00", align 1
@.str.97 = private unnamed_addr constant [20 x i8] c"default blksize: %u\00", align 1
@.str.98 = private unnamed_addr constant [20 x i8] c"default timeout: %u\00", align 1
@.str.99 = private unnamed_addr constant [22 x i8] c"file read allowed: %s\00", align 1
@.str.100 = private unnamed_addr constant [4 x i8] c"Yes\00", align 1
@.str.101 = private unnamed_addr constant [3 x i8] c"No\00", align 1
@.str.102 = private unnamed_addr constant [24 x i8] c"file create allowed: %s\00", align 1
@.str.103 = private unnamed_addr constant [27 x i8] c"file overwrite allowed: %s\00", align 1
@.str.104 = private unnamed_addr constant [12 x i8] c"logging: %s\00", align 1
@.str.105 = private unnamed_addr constant [4 x i8] c"all\00", align 1
@.str.106 = private unnamed_addr constant [7 x i8] c"errors\00", align 1
@.str.107 = private unnamed_addr constant [49 x i8] c"Warning Thread# %i Creation Failed with error %i\00", align 1
@.str.108 = private unnamed_addr constant [21 x i8] c"thread pool size: %u\00", align 1
@.str.109 = private unnamed_addr constant [24 x i8] c"Failed to Create Socket\00", align 1
@.str.110 = private unnamed_addr constant [10 x i8] c"LISTEN-ON\00", align 1
@.str.111 = private unnamed_addr constant [68 x i8] c"Warning: Section [LISTEN-ON], Invalid Interface Address %s, ignored\00", align 1
@.str.112 = private unnamed_addr constant [27 x i8] c"%s Port %i bind failed, %s\00", align 1
@.str.113 = private unnamed_addr constant [38 x i8] c"No Static Interface ready, Waiting...\00", align 1
@.str.114 = private unnamed_addr constant [20 x i8] c"listening on: %s:%i\00", align 1
@.str.115 = private unnamed_addr constant [53 x i8] c"Network changed, re-detecting Listening Interfaces..\00", align 1
@.str.116 = private unnamed_addr constant [39 x i8] c"Retrying failed Listening Interfaces..\00", align 1
@.str.117 = private unnamed_addr constant [30 x i8] c"Logging Continued on file %s\0A\00", align 1
@.str.118 = private unnamed_addr constant [12 x i8] c"%d-%b-%y %X\00", align 1
@.str.119 = private unnamed_addr constant [9 x i8] c"[%s] %s\0A\00", align 1
@.str.120 = private unnamed_addr constant [21 x i8] c"Client %s:%u %s, %s\0A\00", align 1
@.str.121 = private unnamed_addr constant [18 x i8] c"Client %s:%u, %s\0A\00", align 1
@.str.122 = private unnamed_addr constant [26 x i8] c"[%s] Client %s:%u %s, %s\0A\00", align 1
@.str.123 = private unnamed_addr constant [23 x i8] c"[%s] Client %s:%u, %s\0A\00", align 1

; Function Attrs: noinline norecurse optnone uwtable
define i32 @main(i32, i8**) #0 {
  %3 = alloca i32, align 4
  %4 = alloca i32, align 4
  %5 = alloca i8**, align 8
  %6 = alloca i32, align 4
  %7 = alloca %union.pthread_attr_t, align 8
  %8 = alloca i32, align 4
  %9 = alloca %struct.timeval, align 8
  %10 = alloca %struct.fd_set, align 8
  %11 = alloca i32, align 4
  %12 = alloca i32, align 4
  %13 = alloca i32, align 4
  %14 = alloca i32, align 4
  %15 = alloca i32, align 4
  %16 = alloca %union.pthread_attr_t, align 8
  %17 = alloca i32, align 4
  %18 = alloca i32, align 4
  %19 = alloca i32, align 4
  %20 = alloca %union.pthread_attr_t, align 8
  %21 = alloca i32, align 4
  %22 = alloca %struct.timeval, align 8
  %23 = alloca %struct.fd_set, align 8
  %24 = alloca i32, align 4
  %25 = alloca i32, align 4
  %26 = alloca i32, align 4
  %27 = alloca i32, align 4
  %28 = alloca i32, align 4
  %29 = alloca %union.pthread_attr_t, align 8
  %30 = alloca i32, align 4
  store i32 0, i32* %3, align 4
  store i32 %0, i32* %4, align 4
  store i8** %1, i8*** %5, align 8
  %31 = call void (i32)* @signal(i32 2, void (i32)* @_Z9catch_inti) #10
  %32 = call void (i32)* @signal(i32 6, void (i32)* @_Z9catch_inti) #10
  %33 = call void (i32)* @signal(i32 15, void (i32)* @_Z9catch_inti) #10
  %34 = call void (i32)* @signal(i32 3, void (i32)* @_Z9catch_inti) #10
  %35 = call void (i32)* @signal(i32 20, void (i32)* @_Z9catch_inti) #10
  %36 = call void (i32)* @signal(i32 1, void (i32)* @_Z9catch_inti) #10
  store i8 0, i8* getelementptr inbounds ([256 x i8], [256 x i8]* @logBuff, i64 0, i64 0), align 16
  store i32 1, i32* %6, align 4
  br label %37

; <label>:37:                                     ; preds = %162, %2
  %38 = load i32, i32* %6, align 4
  %39 = load i32, i32* %4, align 4
  %40 = icmp slt i32 %38, %39
  br i1 %40, label %41, label %165

; <label>:41:                                     ; preds = %37
  %42 = load i8**, i8*** %5, align 8
  %43 = load i32, i32* %6, align 4
  %44 = sext i32 %43 to i64
  %45 = getelementptr inbounds i8*, i8** %42, i64 %44
  %46 = load i8*, i8** %45, align 8
  %47 = call i32 @strcasecmp(i8* %46, i8* getelementptr inbounds ([3 x i8], [3 x i8]* @.str, i32 0, i32 0)) #11
  %48 = icmp ne i32 %47, 0
  br i1 %48, label %50, label %49

; <label>:49:                                     ; preds = %41
  store i8 1, i8* @verbatim, align 1
  br label %161

; <label>:50:                                     ; preds = %41
  %51 = load i8**, i8*** %5, align 8
  %52 = load i32, i32* %6, align 4
  %53 = sext i32 %52 to i64
  %54 = getelementptr inbounds i8*, i8** %51, i64 %53
  %55 = load i8*, i8** %54, align 8
  %56 = call i32 @strcmp(i8* %55, i8* getelementptr inbounds ([3 x i8], [3 x i8]* @.str.1, i32 0, i32 0)) #11
  %57 = icmp ne i32 %56, 0
  br i1 %57, label %84, label %58

; <label>:58:                                     ; preds = %50
  %59 = load i32, i32* %4, align 4
  %60 = load i32, i32* %6, align 4
  %61 = add nsw i32 %60, 1
  %62 = icmp sgt i32 %59, %61
  br i1 %62, label %63, label %84

; <label>:63:                                     ; preds = %58
  %64 = load i8**, i8*** %5, align 8
  %65 = load i32, i32* %6, align 4
  %66 = add nsw i32 %65, 1
  %67 = sext i32 %66 to i64
  %68 = getelementptr inbounds i8*, i8** %64, i64 %67
  %69 = load i8*, i8** %68, align 8
  %70 = getelementptr inbounds i8, i8* %69, i64 0
  %71 = load i8, i8* %70, align 1
  %72 = sext i8 %71 to i32
  %73 = icmp ne i32 %72, 45
  br i1 %73, label %74, label %84

; <label>:74:                                     ; preds = %63
  %75 = load i8**, i8*** %5, align 8
  %76 = load i32, i32* %6, align 4
  %77 = add nsw i32 %76, 1
  %78 = sext i32 %77 to i64
  %79 = getelementptr inbounds i8*, i8** %75, i64 %78
  %80 = load i8*, i8** %79, align 8
  %81 = call i8* @_Z6myTrimPcS_(i8* getelementptr inbounds ([256 x i8], [256 x i8]* @iniFile, i32 0, i32 0), i8* %80)
  %82 = load i32, i32* %6, align 4
  %83 = add nsw i32 %82, 1
  store i32 %83, i32* %6, align 4
  br label %160

; <label>:84:                                     ; preds = %63, %58, %50
  %85 = load i8**, i8*** %5, align 8
  %86 = load i32, i32* %6, align 4
  %87 = sext i32 %86 to i64
  %88 = getelementptr inbounds i8*, i8** %85, i64 %87
  %89 = load i8*, i8** %88, align 8
  %90 = call i32 @strcmp(i8* %89, i8* getelementptr inbounds ([3 x i8], [3 x i8]* @.str.2, i32 0, i32 0)) #11
  %91 = icmp ne i32 %90, 0
  br i1 %91, label %118, label %92

; <label>:92:                                     ; preds = %84
  %93 = load i32, i32* %4, align 4
  %94 = load i32, i32* %6, align 4
  %95 = add nsw i32 %94, 1
  %96 = icmp sgt i32 %93, %95
  br i1 %96, label %97, label %118

; <label>:97:                                     ; preds = %92
  %98 = load i8**, i8*** %5, align 8
  %99 = load i32, i32* %6, align 4
  %100 = add nsw i32 %99, 1
  %101 = sext i32 %100 to i64
  %102 = getelementptr inbounds i8*, i8** %98, i64 %101
  %103 = load i8*, i8** %102, align 8
  %104 = getelementptr inbounds i8, i8* %103, i64 0
  %105 = load i8, i8* %104, align 1
  %106 = sext i8 %105 to i32
  %107 = icmp ne i32 %106, 45
  br i1 %107, label %108, label %118

; <label>:108:                                    ; preds = %97
  %109 = load i8**, i8*** %5, align 8
  %110 = load i32, i32* %6, align 4
  %111 = add nsw i32 %110, 1
  %112 = sext i32 %111 to i64
  %113 = getelementptr inbounds i8*, i8** %109, i64 %112
  %114 = load i8*, i8** %113, align 8
  %115 = call i8* @_Z6myTrimPcS_(i8* getelementptr inbounds ([256 x i8], [256 x i8]* @logFile, i32 0, i32 0), i8* %114)
  %116 = load i32, i32* %6, align 4
  %117 = add nsw i32 %116, 1
  store i32 %117, i32* %6, align 4
  br label %159

; <label>:118:                                    ; preds = %97, %92, %84
  %119 = load i8**, i8*** %5, align 8
  %120 = load i32, i32* %6, align 4
  %121 = sext i32 %120 to i64
  %122 = getelementptr inbounds i8*, i8** %119, i64 %121
  %123 = load i8*, i8** %122, align 8
  %124 = call i32 @strncasecmp(i8* %123, i8* getelementptr inbounds ([3 x i8], [3 x i8]* @.str.1, i32 0, i32 0), i64 2) #11
  %125 = icmp ne i32 %124, 0
  br i1 %125, label %134, label %126

; <label>:126:                                    ; preds = %118
  %127 = load i8**, i8*** %5, align 8
  %128 = load i32, i32* %6, align 4
  %129 = sext i32 %128 to i64
  %130 = getelementptr inbounds i8*, i8** %127, i64 %129
  %131 = load i8*, i8** %130, align 8
  %132 = getelementptr inbounds i8, i8* %131, i64 2
  %133 = call i8* @_Z6myTrimPcS_(i8* getelementptr inbounds ([256 x i8], [256 x i8]* @iniFile, i32 0, i32 0), i8* %132)
  br label %158

; <label>:134:                                    ; preds = %118
  %135 = load i8**, i8*** %5, align 8
  %136 = load i32, i32* %6, align 4
  %137 = sext i32 %136 to i64
  %138 = getelementptr inbounds i8*, i8** %135, i64 %137
  %139 = load i8*, i8** %138, align 8
  %140 = call i32 @strncasecmp(i8* %139, i8* getelementptr inbounds ([3 x i8], [3 x i8]* @.str.2, i32 0, i32 0), i64 2) #11
  %141 = icmp ne i32 %140, 0
  br i1 %141, label %150, label %142

; <label>:142:                                    ; preds = %134
  %143 = load i8**, i8*** %5, align 8
  %144 = load i32, i32* %6, align 4
  %145 = sext i32 %144 to i64
  %146 = getelementptr inbounds i8*, i8** %143, i64 %145
  %147 = load i8*, i8** %146, align 8
  %148 = getelementptr inbounds i8, i8* %147, i64 2
  %149 = call i8* @_Z6myTrimPcS_(i8* getelementptr inbounds ([256 x i8], [256 x i8]* @logFile, i32 0, i32 0), i8* %148)
  br label %157

; <label>:150:                                    ; preds = %134
  %151 = load i8**, i8*** %5, align 8
  %152 = load i32, i32* %6, align 4
  %153 = sext i32 %152 to i64
  %154 = getelementptr inbounds i8*, i8** %151, i64 %153
  %155 = load i8*, i8** %154, align 8
  %156 = call i32 (i8*, i8*, ...) @sprintf(i8* getelementptr inbounds ([256 x i8], [256 x i8]* @logBuff, i32 0, i32 0), i8* getelementptr inbounds ([27 x i8], [27 x i8]* @.str.3, i32 0, i32 0), i8* %155) #10
  br label %165

; <label>:157:                                    ; preds = %142
  br label %158

; <label>:158:                                    ; preds = %157, %126
  br label %159

; <label>:159:                                    ; preds = %158, %108
  br label %160

; <label>:160:                                    ; preds = %159, %74
  br label %161

; <label>:161:                                    ; preds = %160, %49
  br label %162

; <label>:162:                                    ; preds = %161
  %163 = load i32, i32* %6, align 4
  %164 = add nsw i32 %163, 1
  store i32 %164, i32* %6, align 4
  br label %37

; <label>:165:                                    ; preds = %150, %37
  %166 = load i8, i8* getelementptr inbounds ([256 x i8], [256 x i8]* @iniFile, i64 0, i64 0), align 16
  %167 = icmp ne i8 %166, 0
  br i1 %167, label %170, label %168

; <label>:168:                                    ; preds = %165
  %169 = call i8* @strcpy(i8* getelementptr inbounds ([256 x i8], [256 x i8]* @iniFile, i32 0, i32 0), i8* getelementptr inbounds ([19 x i8], [19 x i8]* @.str.4, i32 0, i32 0)) #10
  br label %170

; <label>:170:                                    ; preds = %168, %165
  %171 = load i8, i8* @verbatim, align 1
  %172 = trunc i8 %171 to i1
  br i1 %172, label %173, label %342

; <label>:173:                                    ; preds = %170
  %174 = load i8, i8* getelementptr inbounds ([256 x i8], [256 x i8]* @logBuff, i64 0, i64 0), align 16
  %175 = icmp ne i8 %174, 0
  br i1 %175, label %176, label %178

; <label>:176:                                    ; preds = %173
  %177 = call i32 (i8*, ...) @printf(i8* getelementptr inbounds ([4 x i8], [4 x i8]* @.str.5, i32 0, i32 0), i8* getelementptr inbounds ([256 x i8], [256 x i8]* @logBuff, i32 0, i32 0))
  call void @exit(i32 1) #12
  unreachable

; <label>:178:                                    ; preds = %173
  %179 = call i32 @pthread_attr_init(%union.pthread_attr_t* %7) #10
  %180 = call i32 @pthread_attr_setdetachstate(%union.pthread_attr_t* %7, i32 1) #10
  %181 = call i32 @pthread_create(i64* @threadId, %union.pthread_attr_t* %7, i8* (i8*)* @_Z4initPv, i8* null) #10
  store i32 %181, i32* %8, align 4
  %182 = call i32 @pthread_attr_destroy(%union.pthread_attr_t* %7) #10
  %183 = load i32, i32* %8, align 4
  %184 = icmp ne i32 %183, 0
  br i1 %184, label %185, label %189

; <label>:185:                                    ; preds = %178
  %186 = load i32, i32* %8, align 4
  %187 = call i8* @strerror(i32 %186) #10
  %188 = call i32 (i8*, i8*, ...) @sprintf(i8* getelementptr inbounds ([256 x i8], [256 x i8]* @logBuff, i32 0, i32 0), i8* getelementptr inbounds ([49 x i8], [49 x i8]* @.str.6, i32 0, i32 0), i8* %187) #10
  call void @_Z7logMessPch(i8* getelementptr inbounds ([256 x i8], [256 x i8]* @logBuff, i32 0, i32 0), i8 zeroext 1)
  call void @exit(i32 1) #12
  unreachable

; <label>:189:                                    ; preds = %178
  br label %190

; <label>:190:                                    ; preds = %199, %189
  %191 = load i8, i8* @kRunning, align 1
  %192 = trunc i8 %191 to i1
  br i1 %192, label %193, label %197

; <label>:193:                                    ; preds = %190
  %194 = load i8, i8* getelementptr inbounds (%struct.data1, %struct.data1* @network, i32 0, i32 5), align 4
  %195 = trunc i8 %194 to i1
  %196 = xor i1 %195, true
  br label %197

; <label>:197:                                    ; preds = %193, %190
  %198 = phi i1 [ false, %190 ], [ %196, %193 ]
  br i1 %198, label %199, label %201

; <label>:199:                                    ; preds = %197
  %200 = call i32 @sleep(i32 1)
  br label %190

; <label>:201:                                    ; preds = %197
  %202 = load i32, i32* getelementptr inbounds (%struct.data2, %struct.data2* @cfig, i32 0, i32 4), align 8
  %203 = call i32 @setuid(i32 %202) #10
  %204 = load i32, i32* getelementptr inbounds (%struct.data2, %struct.data2* @cfig, i32 0, i32 5), align 4
  %205 = call i32 @setgid(i32 %204) #10
  br label %206

; <label>:206:                                    ; preds = %340, %212, %201
  %207 = load i8, i8* @kRunning, align 1
  %208 = trunc i8 %207 to i1
  br i1 %208, label %209, label %341

; <label>:209:                                    ; preds = %206
  store i8 0, i8* getelementptr inbounds (%struct.data1, %struct.data1* @network, i32 0, i32 6), align 1
  %210 = load i8, i8* getelementptr inbounds (%struct.data1, %struct.data1* @network, i32 0, i32 5), align 4
  %211 = trunc i8 %210 to i1
  br i1 %211, label %214, label %212

; <label>:212:                                    ; preds = %209
  %213 = call i32 @sleep(i32 1)
  br label %206

; <label>:214:                                    ; preds = %209
  br label %215

; <label>:215:                                    ; preds = %214
  %216 = getelementptr inbounds %struct.fd_set, %struct.fd_set* %10, i32 0, i32 0
  %217 = getelementptr inbounds [16 x i64], [16 x i64]* %216, i64 0, i64 0
  %218 = call { i64, i64* } asm sideeffect "cld; rep; stosq", "={cx},={di},{ax},0,1,~{memory},~{dirflag},~{fpsr},~{flags}"(i32 0, i64 16, i64* %217) #10, !srcloc !2
  %219 = extractvalue { i64, i64* } %218, 0
  %220 = extractvalue { i64, i64* } %218, 1
  %221 = trunc i64 %219 to i32
  store i32 %221, i32* %11, align 4
  %222 = ptrtoint i64* %220 to i64
  %223 = trunc i64 %222 to i32
  store i32 %223, i32* %12, align 4
  br label %224

; <label>:224:                                    ; preds = %215
  %225 = getelementptr inbounds %struct.timeval, %struct.timeval* %9, i32 0, i32 0
  store i64 20, i64* %225, align 8
  %226 = getelementptr inbounds %struct.timeval, %struct.timeval* %9, i32 0, i32 1
  store i64 0, i64* %226, align 8
  store i32 0, i32* %13, align 4
  br label %227

; <label>:227:                                    ; preds = %259, %224
  %228 = load i32, i32* %13, align 4
  %229 = icmp slt i32 %228, 8
  br i1 %229, label %230, label %237

; <label>:230:                                    ; preds = %227
  %231 = load i32, i32* %13, align 4
  %232 = sext i32 %231 to i64
  %233 = getelementptr inbounds [8 x %struct.tftpConnType], [8 x %struct.tftpConnType]* getelementptr inbounds (%struct.data1, %struct.data1* @network, i32 0, i32 0), i64 0, i64 %232
  %234 = getelementptr inbounds %struct.tftpConnType, %struct.tftpConnType* %233, i32 0, i32 5
  %235 = load i8, i8* %234, align 1
  %236 = trunc i8 %235 to i1
  br label %237

; <label>:237:                                    ; preds = %230, %227
  %238 = phi i1 [ false, %227 ], [ %236, %230 ]
  br i1 %238, label %239, label %262

; <label>:239:                                    ; preds = %237
  %240 = load i32, i32* %13, align 4
  %241 = sext i32 %240 to i64
  %242 = getelementptr inbounds [8 x %struct.tftpConnType], [8 x %struct.tftpConnType]* getelementptr inbounds (%struct.data1, %struct.data1* @network, i32 0, i32 0), i64 0, i64 %241
  %243 = getelementptr inbounds %struct.tftpConnType, %struct.tftpConnType* %242, i32 0, i32 0
  %244 = load i32, i32* %243, align 4
  %245 = srem i32 %244, 64
  %246 = zext i32 %245 to i64
  %247 = shl i64 1, %246
  %248 = getelementptr inbounds %struct.fd_set, %struct.fd_set* %10, i32 0, i32 0
  %249 = load i32, i32* %13, align 4
  %250 = sext i32 %249 to i64
  %251 = getelementptr inbounds [8 x %struct.tftpConnType], [8 x %struct.tftpConnType]* getelementptr inbounds (%struct.data1, %struct.data1* @network, i32 0, i32 0), i64 0, i64 %250
  %252 = getelementptr inbounds %struct.tftpConnType, %struct.tftpConnType* %251, i32 0, i32 0
  %253 = load i32, i32* %252, align 4
  %254 = sdiv i32 %253, 64
  %255 = sext i32 %254 to i64
  %256 = getelementptr inbounds [16 x i64], [16 x i64]* %248, i64 0, i64 %255
  %257 = load i64, i64* %256, align 8
  %258 = or i64 %257, %247
  store i64 %258, i64* %256, align 8
  br label %259

; <label>:259:                                    ; preds = %239
  %260 = load i32, i32* %13, align 4
  %261 = add nsw i32 %260, 1
  store i32 %261, i32* %13, align 4
  br label %227

; <label>:262:                                    ; preds = %237
  %263 = call i32 @pthread_mutex_lock(%union.pthread_mutex_t* @mutSocket) #10
  %264 = load i32, i32* getelementptr inbounds (%struct.data1, %struct.data1* @network, i32 0, i32 7), align 4
  %265 = call i32 @select(i32 %264, %struct.fd_set* %10, %struct.fd_set* null, %struct.fd_set* null, %struct.timeval* %9)
  store i32 %265, i32* %14, align 4
  %266 = call i32 @pthread_mutex_unlock(%union.pthread_mutex_t* @mutSocket) #10
  store i32 0, i32* %15, align 4
  br label %267

; <label>:267:                                    ; preds = %337, %262
  %268 = load i32, i32* %14, align 4
  %269 = icmp sgt i32 %268, 0
  br i1 %269, label %270, label %280

; <label>:270:                                    ; preds = %267
  %271 = load i32, i32* %15, align 4
  %272 = icmp slt i32 %271, 8
  br i1 %272, label %273, label %280

; <label>:273:                                    ; preds = %270
  %274 = load i32, i32* %15, align 4
  %275 = sext i32 %274 to i64
  %276 = getelementptr inbounds [8 x %struct.tftpConnType], [8 x %struct.tftpConnType]* getelementptr inbounds (%struct.data1, %struct.data1* @network, i32 0, i32 0), i64 0, i64 %275
  %277 = getelementptr inbounds %struct.tftpConnType, %struct.tftpConnType* %276, i32 0, i32 5
  %278 = load i8, i8* %277, align 1
  %279 = trunc i8 %278 to i1
  br label %280

; <label>:280:                                    ; preds = %273, %270, %267
  %281 = phi i1 [ false, %270 ], [ false, %267 ], [ %279, %273 ]
  br i1 %281, label %282, label %340

; <label>:282:                                    ; preds = %280
  %283 = load i8, i8* getelementptr inbounds (%struct.data1, %struct.data1* @network, i32 0, i32 5), align 4
  %284 = trunc i8 %283 to i1
  br i1 %284, label %285, label %336

; <label>:285:                                    ; preds = %282
  store i8 1, i8* getelementptr inbounds (%struct.data1, %struct.data1* @network, i32 0, i32 6), align 1
  %286 = getelementptr inbounds %struct.fd_set, %struct.fd_set* %10, i32 0, i32 0
  %287 = load i32, i32* %15, align 4
  %288 = sext i32 %287 to i64
  %289 = getelementptr inbounds [8 x %struct.tftpConnType], [8 x %struct.tftpConnType]* getelementptr inbounds (%struct.data1, %struct.data1* @network, i32 0, i32 0), i64 0, i64 %288
  %290 = getelementptr inbounds %struct.tftpConnType, %struct.tftpConnType* %289, i32 0, i32 0
  %291 = load i32, i32* %290, align 4
  %292 = sdiv i32 %291, 64
  %293 = sext i32 %292 to i64
  %294 = getelementptr inbounds [16 x i64], [16 x i64]* %286, i64 0, i64 %293
  %295 = load i64, i64* %294, align 8
  %296 = load i32, i32* %15, align 4
  %297 = sext i32 %296 to i64
  %298 = getelementptr inbounds [8 x %struct.tftpConnType], [8 x %struct.tftpConnType]* getelementptr inbounds (%struct.data1, %struct.data1* @network, i32 0, i32 0), i64 0, i64 %297
  %299 = getelementptr inbounds %struct.tftpConnType, %struct.tftpConnType* %298, i32 0, i32 0
  %300 = load i32, i32* %299, align 4
  %301 = srem i32 %300, 64
  %302 = zext i32 %301 to i64
  %303 = shl i64 1, %302
  %304 = and i64 %295, %303
  %305 = icmp ne i64 %304, 0
  br i1 %305, label %306, label %335

; <label>:306:                                    ; preds = %285
  %307 = call i32 @pthread_mutex_lock(%union.pthread_mutex_t* @mutSocket) #10
  %308 = load i32, i32* %15, align 4
  store i32 %308, i32* @currentServer, align 4
  %309 = load i16, i16* @totalThreads, align 2
  %310 = icmp ne i16 %309, 0
  br i1 %310, label %311, label %317

; <label>:311:                                    ; preds = %306
  %312 = load i16, i16* @activeThreads, align 2
  %313 = zext i16 %312 to i32
  %314 = load i16, i16* @totalThreads, align 2
  %315 = zext i16 %314 to i32
  %316 = icmp sge i32 %313, %315
  br i1 %316, label %317, label %329

; <label>:317:                                    ; preds = %311, %306
  %318 = call i32 @pthread_attr_init(%union.pthread_attr_t* %16) #10
  %319 = call i32 @pthread_attr_setdetachstate(%union.pthread_attr_t* %16, i32 1) #10
  %320 = call i32 @pthread_create(i64* @threadId, %union.pthread_attr_t* %16, i8* (i8*)* @_Z14processRequestPv, i8* null) #10
  store i32 %320, i32* %17, align 4
  %321 = call i32 @pthread_attr_destroy(%union.pthread_attr_t* %16) #10
  %322 = load i32, i32* %17, align 4
  %323 = icmp ne i32 %322, 0
  br i1 %323, label %324, label %328

; <label>:324:                                    ; preds = %317
  %325 = load i32, i32* %17, align 4
  %326 = call i32 (i8*, ...) @printf(i8* getelementptr inbounds ([26 x i8], [26 x i8]* @.str.7, i32 0, i32 0), i32 %325)
  %327 = call i32 @pthread_mutex_unlock(%union.pthread_mutex_t* @mutSocket) #10
  br label %337

; <label>:328:                                    ; preds = %317
  br label %329

; <label>:329:                                    ; preds = %328, %311
  %330 = call i32 @pthread_mutex_unlock(%union.pthread_mutex_t* @mutThread) #10
  %331 = call i32 @pthread_mutex_lock(%union.pthread_mutex_t* @mutSocket) #10
  %332 = load i32, i32* %14, align 4
  %333 = add nsw i32 %332, -1
  store i32 %333, i32* %14, align 4
  %334 = call i32 @pthread_mutex_unlock(%union.pthread_mutex_t* @mutSocket) #10
  br label %335

; <label>:335:                                    ; preds = %329, %285
  br label %336

; <label>:336:                                    ; preds = %335, %282
  br label %337

; <label>:337:                                    ; preds = %336, %324
  %338 = load i32, i32* %15, align 4
  %339 = add nsw i32 %338, 1
  store i32 %339, i32* %15, align 4
  br label %267

; <label>:340:                                    ; preds = %280
  br label %206

; <label>:341:                                    ; preds = %206
  br label %535

; <label>:342:                                    ; preds = %170
  %343 = load i8, i8* getelementptr inbounds ([256 x i8], [256 x i8]* @logBuff, i64 0, i64 0), align 16
  %344 = icmp ne i8 %343, 0
  br i1 %344, label %345, label %346

; <label>:345:                                    ; preds = %342
  call void (i32, i8*, ...) @syslog(i32 138, i8* getelementptr inbounds ([256 x i8], [256 x i8]* @logBuff, i32 0, i32 0))
  call void @exit(i32 1) #12
  unreachable

; <label>:346:                                    ; preds = %342
  %347 = call i32 @fork() #10
  store i32 %347, i32* %18, align 4
  %348 = load i32, i32* %18, align 4
  %349 = icmp slt i32 %348, 0
  br i1 %349, label %350, label %351

; <label>:350:                                    ; preds = %346
  call void @exit(i32 1) #12
  unreachable

; <label>:351:                                    ; preds = %346
  %352 = load i32, i32* %18, align 4
  %353 = icmp sgt i32 %352, 0
  br i1 %353, label %354, label %355

; <label>:354:                                    ; preds = %351
  call void @exit(i32 0) #12
  unreachable

; <label>:355:                                    ; preds = %351
  %356 = call i32 @umask(i32 0) #10
  %357 = call i32 @setsid() #10
  store i32 %357, i32* %19, align 4
  %358 = load i32, i32* %19, align 4
  %359 = icmp slt i32 %358, 0
  br i1 %359, label %360, label %361

; <label>:360:                                    ; preds = %355
  call void @exit(i32 1) #12
  unreachable

; <label>:361:                                    ; preds = %355
  %362 = call i32 @chdir(i8* getelementptr inbounds ([2 x i8], [2 x i8]* @.str.8, i32 0, i32 0)) #10
  %363 = icmp slt i32 %362, 0
  br i1 %363, label %364, label %365

; <label>:364:                                    ; preds = %361
  call void @exit(i32 1) #12
  unreachable

; <label>:365:                                    ; preds = %361
  %366 = call i32 @close(i32 0)
  %367 = call i32 @close(i32 1)
  %368 = call i32 @close(i32 2)
  %369 = call i32 @pthread_attr_init(%union.pthread_attr_t* %20) #10
  %370 = call i32 @pthread_attr_setdetachstate(%union.pthread_attr_t* %20, i32 1) #10
  %371 = call i32 @pthread_create(i64* @threadId, %union.pthread_attr_t* %20, i8* (i8*)* @_Z4initPv, i8* null) #10
  store i32 %371, i32* %21, align 4
  %372 = call i32 @pthread_attr_destroy(%union.pthread_attr_t* %20) #10
  %373 = load i32, i32* %21, align 4
  %374 = icmp ne i32 %373, 0
  br i1 %374, label %375, label %379

; <label>:375:                                    ; preds = %365
  %376 = load i32, i32* %21, align 4
  %377 = call i8* @strerror(i32 %376) #10
  %378 = call i32 (i8*, i8*, ...) @sprintf(i8* getelementptr inbounds ([256 x i8], [256 x i8]* @logBuff, i32 0, i32 0), i8* getelementptr inbounds ([49 x i8], [49 x i8]* @.str.6, i32 0, i32 0), i8* %377) #10
  call void @_Z7logMessPch(i8* getelementptr inbounds ([256 x i8], [256 x i8]* @logBuff, i32 0, i32 0), i8 zeroext 1)
  call void @exit(i32 1) #12
  unreachable

; <label>:379:                                    ; preds = %365
  br label %380

; <label>:380:                                    ; preds = %389, %379
  %381 = load i8, i8* @kRunning, align 1
  %382 = trunc i8 %381 to i1
  br i1 %382, label %383, label %387

; <label>:383:                                    ; preds = %380
  %384 = load i8, i8* getelementptr inbounds (%struct.data1, %struct.data1* @network, i32 0, i32 5), align 4
  %385 = trunc i8 %384 to i1
  %386 = xor i1 %385, true
  br label %387

; <label>:387:                                    ; preds = %383, %380
  %388 = phi i1 [ false, %380 ], [ %386, %383 ]
  br i1 %388, label %389, label %391

; <label>:389:                                    ; preds = %387
  %390 = call i32 @sleep(i32 1)
  br label %380

; <label>:391:                                    ; preds = %387
  %392 = load i32, i32* getelementptr inbounds (%struct.data2, %struct.data2* @cfig, i32 0, i32 4), align 8
  %393 = call i32 @setuid(i32 %392) #10
  %394 = load i32, i32* getelementptr inbounds (%struct.data2, %struct.data2* @cfig, i32 0, i32 5), align 4
  %395 = call i32 @setgid(i32 %394) #10
  br label %396

; <label>:396:                                    ; preds = %533, %405, %391
  %397 = load i8, i8* @kRunning, align 1
  %398 = trunc i8 %397 to i1
  br i1 %398, label %399, label %534

; <label>:399:                                    ; preds = %396
  store i8 0, i8* getelementptr inbounds (%struct.data1, %struct.data1* @network, i32 0, i32 6), align 1
  %400 = load i8, i8* getelementptr inbounds (%struct.data1, %struct.data1* @network, i32 0, i32 0, i64 0, i32 5), align 1
  %401 = trunc i8 %400 to i1
  br i1 %401, label %402, label %405

; <label>:402:                                    ; preds = %399
  %403 = load i8, i8* getelementptr inbounds (%struct.data1, %struct.data1* @network, i32 0, i32 5), align 4
  %404 = trunc i8 %403 to i1
  br i1 %404, label %407, label %405

; <label>:405:                                    ; preds = %402, %399
  %406 = call i32 @sleep(i32 2)
  br label %396

; <label>:407:                                    ; preds = %402
  br label %408

; <label>:408:                                    ; preds = %407
  %409 = getelementptr inbounds %struct.fd_set, %struct.fd_set* %23, i32 0, i32 0
  %410 = getelementptr inbounds [16 x i64], [16 x i64]* %409, i64 0, i64 0
  %411 = call { i64, i64* } asm sideeffect "cld; rep; stosq", "={cx},={di},{ax},0,1,~{memory},~{dirflag},~{fpsr},~{flags}"(i32 0, i64 16, i64* %410) #10, !srcloc !3
  %412 = extractvalue { i64, i64* } %411, 0
  %413 = extractvalue { i64, i64* } %411, 1
  %414 = trunc i64 %412 to i32
  store i32 %414, i32* %24, align 4
  %415 = ptrtoint i64* %413 to i64
  %416 = trunc i64 %415 to i32
  store i32 %416, i32* %25, align 4
  br label %417

; <label>:417:                                    ; preds = %408
  %418 = getelementptr inbounds %struct.timeval, %struct.timeval* %22, i32 0, i32 0
  store i64 20, i64* %418, align 8
  %419 = getelementptr inbounds %struct.timeval, %struct.timeval* %22, i32 0, i32 1
  store i64 0, i64* %419, align 8
  store i32 0, i32* %26, align 4
  br label %420

; <label>:420:                                    ; preds = %452, %417
  %421 = load i32, i32* %26, align 4
  %422 = icmp slt i32 %421, 8
  br i1 %422, label %423, label %430

; <label>:423:                                    ; preds = %420
  %424 = load i32, i32* %26, align 4
  %425 = sext i32 %424 to i64
  %426 = getelementptr inbounds [8 x %struct.tftpConnType], [8 x %struct.tftpConnType]* getelementptr inbounds (%struct.data1, %struct.data1* @network, i32 0, i32 0), i64 0, i64 %425
  %427 = getelementptr inbounds %struct.tftpConnType, %struct.tftpConnType* %426, i32 0, i32 5
  %428 = load i8, i8* %427, align 1
  %429 = trunc i8 %428 to i1
  br label %430

; <label>:430:                                    ; preds = %423, %420
  %431 = phi i1 [ false, %420 ], [ %429, %423 ]
  br i1 %431, label %432, label %455

; <label>:432:                                    ; preds = %430
  %433 = load i32, i32* %26, align 4
  %434 = sext i32 %433 to i64
  %435 = getelementptr inbounds [8 x %struct.tftpConnType], [8 x %struct.tftpConnType]* getelementptr inbounds (%struct.data1, %struct.data1* @network, i32 0, i32 0), i64 0, i64 %434
  %436 = getelementptr inbounds %struct.tftpConnType, %struct.tftpConnType* %435, i32 0, i32 0
  %437 = load i32, i32* %436, align 4
  %438 = srem i32 %437, 64
  %439 = zext i32 %438 to i64
  %440 = shl i64 1, %439
  %441 = getelementptr inbounds %struct.fd_set, %struct.fd_set* %23, i32 0, i32 0
  %442 = load i32, i32* %26, align 4
  %443 = sext i32 %442 to i64
  %444 = getelementptr inbounds [8 x %struct.tftpConnType], [8 x %struct.tftpConnType]* getelementptr inbounds (%struct.data1, %struct.data1* @network, i32 0, i32 0), i64 0, i64 %443
  %445 = getelementptr inbounds %struct.tftpConnType, %struct.tftpConnType* %444, i32 0, i32 0
  %446 = load i32, i32* %445, align 4
  %447 = sdiv i32 %446, 64
  %448 = sext i32 %447 to i64
  %449 = getelementptr inbounds [16 x i64], [16 x i64]* %441, i64 0, i64 %448
  %450 = load i64, i64* %449, align 8
  %451 = or i64 %450, %440
  store i64 %451, i64* %449, align 8
  br label %452

; <label>:452:                                    ; preds = %432
  %453 = load i32, i32* %26, align 4
  %454 = add nsw i32 %453, 1
  store i32 %454, i32* %26, align 4
  br label %420

; <label>:455:                                    ; preds = %430
  %456 = call i32 @pthread_mutex_lock(%union.pthread_mutex_t* @mutSocket) #10
  %457 = load i32, i32* getelementptr inbounds (%struct.data1, %struct.data1* @network, i32 0, i32 7), align 4
  %458 = call i32 @select(i32 %457, %struct.fd_set* %23, %struct.fd_set* null, %struct.fd_set* null, %struct.timeval* %22)
  store i32 %458, i32* %27, align 4
  %459 = call i32 @pthread_mutex_unlock(%union.pthread_mutex_t* @mutSocket) #10
  store i32 0, i32* %28, align 4
  br label %460

; <label>:460:                                    ; preds = %530, %455
  %461 = load i32, i32* %27, align 4
  %462 = icmp sgt i32 %461, 0
  br i1 %462, label %463, label %473

; <label>:463:                                    ; preds = %460
  %464 = load i32, i32* %28, align 4
  %465 = icmp slt i32 %464, 8
  br i1 %465, label %466, label %473

; <label>:466:                                    ; preds = %463
  %467 = load i32, i32* %28, align 4
  %468 = sext i32 %467 to i64
  %469 = getelementptr inbounds [8 x %struct.tftpConnType], [8 x %struct.tftpConnType]* getelementptr inbounds (%struct.data1, %struct.data1* @network, i32 0, i32 0), i64 0, i64 %468
  %470 = getelementptr inbounds %struct.tftpConnType, %struct.tftpConnType* %469, i32 0, i32 5
  %471 = load i8, i8* %470, align 1
  %472 = trunc i8 %471 to i1
  br label %473

; <label>:473:                                    ; preds = %466, %463, %460
  %474 = phi i1 [ false, %463 ], [ false, %460 ], [ %472, %466 ]
  br i1 %474, label %475, label %533

; <label>:475:                                    ; preds = %473
  %476 = load i8, i8* getelementptr inbounds (%struct.data1, %struct.data1* @network, i32 0, i32 5), align 4
  %477 = trunc i8 %476 to i1
  br i1 %477, label %478, label %529

; <label>:478:                                    ; preds = %475
  store i8 1, i8* getelementptr inbounds (%struct.data1, %struct.data1* @network, i32 0, i32 6), align 1
  %479 = getelementptr inbounds %struct.fd_set, %struct.fd_set* %23, i32 0, i32 0
  %480 = load i32, i32* %28, align 4
  %481 = sext i32 %480 to i64
  %482 = getelementptr inbounds [8 x %struct.tftpConnType], [8 x %struct.tftpConnType]* getelementptr inbounds (%struct.data1, %struct.data1* @network, i32 0, i32 0), i64 0, i64 %481
  %483 = getelementptr inbounds %struct.tftpConnType, %struct.tftpConnType* %482, i32 0, i32 0
  %484 = load i32, i32* %483, align 4
  %485 = sdiv i32 %484, 64
  %486 = sext i32 %485 to i64
  %487 = getelementptr inbounds [16 x i64], [16 x i64]* %479, i64 0, i64 %486
  %488 = load i64, i64* %487, align 8
  %489 = load i32, i32* %28, align 4
  %490 = sext i32 %489 to i64
  %491 = getelementptr inbounds [8 x %struct.tftpConnType], [8 x %struct.tftpConnType]* getelementptr inbounds (%struct.data1, %struct.data1* @network, i32 0, i32 0), i64 0, i64 %490
  %492 = getelementptr inbounds %struct.tftpConnType, %struct.tftpConnType* %491, i32 0, i32 0
  %493 = load i32, i32* %492, align 4
  %494 = srem i32 %493, 64
  %495 = zext i32 %494 to i64
  %496 = shl i64 1, %495
  %497 = and i64 %488, %496
  %498 = icmp ne i64 %497, 0
  br i1 %498, label %499, label %528

; <label>:499:                                    ; preds = %478
  %500 = call i32 @pthread_mutex_lock(%union.pthread_mutex_t* @mutSocket) #10
  %501 = load i32, i32* %28, align 4
  store i32 %501, i32* @currentServer, align 4
  %502 = load i16, i16* @totalThreads, align 2
  %503 = icmp ne i16 %502, 0
  br i1 %503, label %504, label %510

; <label>:504:                                    ; preds = %499
  %505 = load i16, i16* @activeThreads, align 2
  %506 = zext i16 %505 to i32
  %507 = load i16, i16* @totalThreads, align 2
  %508 = zext i16 %507 to i32
  %509 = icmp sge i32 %506, %508
  br i1 %509, label %510, label %522

; <label>:510:                                    ; preds = %504, %499
  %511 = call i32 @pthread_attr_init(%union.pthread_attr_t* %29) #10
  %512 = call i32 @pthread_attr_setdetachstate(%union.pthread_attr_t* %29, i32 1) #10
  %513 = call i32 @pthread_create(i64* @threadId, %union.pthread_attr_t* %29, i8* (i8*)* @_Z14processRequestPv, i8* null) #10
  store i32 %513, i32* %30, align 4
  %514 = call i32 @pthread_attr_destroy(%union.pthread_attr_t* %29) #10
  %515 = load i32, i32* %30, align 4
  %516 = icmp ne i32 %515, 0
  br i1 %516, label %517, label %521

; <label>:517:                                    ; preds = %510
  %518 = load i32, i32* %30, align 4
  %519 = call i32 (i8*, i8*, ...) @sprintf(i8* getelementptr inbounds ([256 x i8], [256 x i8]* @logBuff, i32 0, i32 0), i8* getelementptr inbounds ([25 x i8], [25 x i8]* @.str.9, i32 0, i32 0), i32 %518) #10
  call void @_Z7logMessPch(i8* getelementptr inbounds ([256 x i8], [256 x i8]* @logBuff, i32 0, i32 0), i8 zeroext 1)
  %520 = call i32 @pthread_mutex_unlock(%union.pthread_mutex_t* @mutSocket) #10
  br label %530

; <label>:521:                                    ; preds = %510
  br label %522

; <label>:522:                                    ; preds = %521, %504
  %523 = call i32 @pthread_mutex_unlock(%union.pthread_mutex_t* @mutThread) #10
  %524 = call i32 @pthread_mutex_lock(%union.pthread_mutex_t* @mutSocket) #10
  %525 = load i32, i32* %27, align 4
  %526 = add nsw i32 %525, -1
  store i32 %526, i32* %27, align 4
  %527 = call i32 @pthread_mutex_unlock(%union.pthread_mutex_t* @mutSocket) #10
  br label %528

; <label>:528:                                    ; preds = %522, %478
  br label %529

; <label>:529:                                    ; preds = %528, %475
  br label %530

; <label>:530:                                    ; preds = %529, %517
  %531 = load i32, i32* %28, align 4
  %532 = add nsw i32 %531, 1
  store i32 %532, i32* %28, align 4
  br label %460

; <label>:533:                                    ; preds = %473
  br label %396

; <label>:534:                                    ; preds = %396
  br label %535

; <label>:535:                                    ; preds = %534, %341
  %536 = call i32 (i8*, i8*, ...) @sprintf(i8* getelementptr inbounds ([256 x i8], [256 x i8]* @logBuff, i32 0, i32 0), i8* getelementptr inbounds ([31 x i8], [31 x i8]* @.str.10, i32 0, i32 0)) #10
  call void @_Z7logMessPch(i8* getelementptr inbounds ([256 x i8], [256 x i8]* @logBuff, i32 0, i32 0), i8 zeroext 1)
  call void @_Z9closeConnv()
  %537 = load i32, i32* getelementptr inbounds (%struct.data2, %struct.data2* @cfig, i32 0, i32 17), align 4
  %538 = call i32 @close(i32 %537)
  %539 = call i32 (i8*, i8*, ...) @sprintf(i8* getelementptr inbounds ([256 x i8], [256 x i8]* @logBuff, i32 0, i32 0), i8* getelementptr inbounds ([22 x i8], [22 x i8]* @.str.11, i32 0, i32 0)) #10
  call void @_Z7logMessPch(i8* getelementptr inbounds ([256 x i8], [256 x i8]* @logBuff, i32 0, i32 0), i8 zeroext 1)
  %540 = load %struct._IO_FILE*, %struct._IO_FILE** getelementptr inbounds (%struct.data2, %struct.data2* @cfig, i32 0, i32 2), align 8
  %541 = icmp ne %struct._IO_FILE* %540, null
  br i1 %541, label %542, label %545

; <label>:542:                                    ; preds = %535
  %543 = load %struct._IO_FILE*, %struct._IO_FILE** getelementptr inbounds (%struct.data2, %struct.data2* @cfig, i32 0, i32 2), align 8
  %544 = call i32 @fclose(%struct._IO_FILE* %543)
  br label %545

; <label>:545:                                    ; preds = %542, %535
  call void @exit(i32 0) #12
  unreachable
                                                  ; No predecessors!
  %547 = load i32, i32* %3, align 4
  ret i32 %547
}

; Function Attrs: nounwind
declare void (i32)* @signal(i32, void (i32)*) #1

; Function Attrs: noinline nounwind optnone uwtable
define void @_Z9catch_inti(i32) #2 {
  %2 = alloca i32, align 4
  store i32 %0, i32* %2, align 4
  %3 = load i32, i32* getelementptr inbounds (%struct.data2, %struct.data2* @cfig, i32 0, i32 11), align 4
  %4 = call i32 @getpid() #10
  %5 = icmp eq i32 %3, %4
  br i1 %5, label %6, label %7

; <label>:6:                                      ; preds = %1
  store i8 0, i8* @kRunning, align 1
  br label %7

; <label>:7:                                      ; preds = %6, %1
  ret void
}

; Function Attrs: nounwind readonly
declare i32 @strcasecmp(i8*, i8*) #3

; Function Attrs: nounwind readonly
declare i32 @strcmp(i8*, i8*) #3

; Function Attrs: noinline nounwind optnone uwtable
define i8* @_Z6myTrimPcS_(i8*, i8*) #2 {
  %3 = alloca i8*, align 8
  %4 = alloca i8*, align 8
  %5 = alloca i32, align 4
  store i8* %0, i8** %3, align 8
  store i8* %1, i8** %4, align 8
  br label %6

; <label>:6:                                      ; preds = %17, %2
  %7 = load i8*, i8** %4, align 8
  %8 = load i8, i8* %7, align 1
  %9 = icmp ne i8 %8, 0
  br i1 %9, label %10, label %15

; <label>:10:                                     ; preds = %6
  %11 = load i8*, i8** %4, align 8
  %12 = load i8, i8* %11, align 1
  %13 = sext i8 %12 to i32
  %14 = icmp sle i32 %13, 32
  br label %15

; <label>:15:                                     ; preds = %10, %6
  %16 = phi i1 [ false, %6 ], [ %14, %10 ]
  br i1 %16, label %17, label %20

; <label>:17:                                     ; preds = %15
  %18 = load i8*, i8** %4, align 8
  %19 = getelementptr inbounds i8, i8* %18, i32 1
  store i8* %19, i8** %4, align 8
  br label %6

; <label>:20:                                     ; preds = %15
  store i32 0, i32* %5, align 4
  br label %21

; <label>:21:                                     ; preds = %43, %20
  %22 = load i32, i32* %5, align 4
  %23 = icmp slt i32 %22, 511
  br i1 %23, label %24, label %31

; <label>:24:                                     ; preds = %21
  %25 = load i8*, i8** %4, align 8
  %26 = load i32, i32* %5, align 4
  %27 = sext i32 %26 to i64
  %28 = getelementptr inbounds i8, i8* %25, i64 %27
  %29 = load i8, i8* %28, align 1
  %30 = icmp ne i8 %29, 0
  br label %31

; <label>:31:                                     ; preds = %24, %21
  %32 = phi i1 [ false, %21 ], [ %30, %24 ]
  br i1 %32, label %33, label %46

; <label>:33:                                     ; preds = %31
  %34 = load i8*, i8** %4, align 8
  %35 = load i32, i32* %5, align 4
  %36 = sext i32 %35 to i64
  %37 = getelementptr inbounds i8, i8* %34, i64 %36
  %38 = load i8, i8* %37, align 1
  %39 = load i8*, i8** %3, align 8
  %40 = load i32, i32* %5, align 4
  %41 = sext i32 %40 to i64
  %42 = getelementptr inbounds i8, i8* %39, i64 %41
  store i8 %38, i8* %42, align 1
  br label %43

; <label>:43:                                     ; preds = %33
  %44 = load i32, i32* %5, align 4
  %45 = add nsw i32 %44, 1
  store i32 %45, i32* %5, align 4
  br label %21

; <label>:46:                                     ; preds = %31
  %47 = load i8*, i8** %4, align 8
  %48 = load i32, i32* %5, align 4
  %49 = sext i32 %48 to i64
  %50 = getelementptr inbounds i8, i8* %47, i64 %49
  %51 = load i8, i8* %50, align 1
  %52 = load i8*, i8** %3, align 8
  %53 = load i32, i32* %5, align 4
  %54 = sext i32 %53 to i64
  %55 = getelementptr inbounds i8, i8* %52, i64 %54
  store i8 %51, i8* %55, align 1
  %56 = load i32, i32* %5, align 4
  %57 = add nsw i32 %56, -1
  store i32 %57, i32* %5, align 4
  br label %58

; <label>:58:                                     ; preds = %76, %46
  %59 = load i32, i32* %5, align 4
  %60 = icmp sge i32 %59, 0
  br i1 %60, label %61, label %69

; <label>:61:                                     ; preds = %58
  %62 = load i8*, i8** %3, align 8
  %63 = load i32, i32* %5, align 4
  %64 = sext i32 %63 to i64
  %65 = getelementptr inbounds i8, i8* %62, i64 %64
  %66 = load i8, i8* %65, align 1
  %67 = sext i8 %66 to i32
  %68 = icmp sle i32 %67, 32
  br label %69

; <label>:69:                                     ; preds = %61, %58
  %70 = phi i1 [ false, %58 ], [ %68, %61 ]
  br i1 %70, label %71, label %79

; <label>:71:                                     ; preds = %69
  %72 = load i8*, i8** %3, align 8
  %73 = load i32, i32* %5, align 4
  %74 = sext i32 %73 to i64
  %75 = getelementptr inbounds i8, i8* %72, i64 %74
  store i8 0, i8* %75, align 1
  br label %76

; <label>:76:                                     ; preds = %71
  %77 = load i32, i32* %5, align 4
  %78 = add nsw i32 %77, -1
  store i32 %78, i32* %5, align 4
  br label %58

; <label>:79:                                     ; preds = %69
  %80 = load i8*, i8** %3, align 8
  ret i8* %80
}

; Function Attrs: nounwind readonly
declare i32 @strncasecmp(i8*, i8*, i64) #3

; Function Attrs: nounwind
declare i32 @sprintf(i8*, i8*, ...) #1

; Function Attrs: nounwind
declare i8* @strcpy(i8*, i8*) #1

declare i32 @printf(i8*, ...) #4

; Function Attrs: noreturn nounwind
declare void @exit(i32) #5

; Function Attrs: nounwind
declare i32 @pthread_attr_init(%union.pthread_attr_t*) #1

; Function Attrs: nounwind
declare i32 @pthread_attr_setdetachstate(%union.pthread_attr_t*, i32) #1

; Function Attrs: nounwind
declare i32 @pthread_create(i64*, %union.pthread_attr_t*, i8* (i8*)*, i8*) #1

; Function Attrs: noinline optnone uwtable
define i8* @_Z4initPv(i8*) #6 {
  %2 = alloca i8*, align 8
  %3 = alloca i8*, align 8
  %4 = alloca [512 x i8], align 16
  %5 = alloca [512 x i8], align 16
  %6 = alloca [512 x i8], align 16
  %7 = alloca %struct._IO_FILE*, align 8
  %8 = alloca i64, align 8
  %9 = alloca %struct.tm*, align 8
  %10 = alloca i32, align 4
  %11 = alloca %struct.passwd*, align 8
  %12 = alloca i32, align 4
  %13 = alloca i8*, align 8
  %14 = alloca i32, align 4
  %15 = alloca i32, align 4
  %16 = alloca i32, align 4
  %17 = alloca %struct.passwd*, align 8
  %18 = alloca i32, align 4
  %19 = alloca [128 x i8], align 16
  %20 = alloca i16, align 2
  %21 = alloca i32, align 4
  %22 = alloca i32, align 4
  %23 = alloca %union.pthread_attr_t, align 8
  %24 = alloca i32, align 4
  %25 = alloca i8, align 1
  %26 = alloca i8, align 1
  %27 = alloca i16, align 2
  %28 = alloca i32, align 4
  %29 = alloca i8, align 1
  %30 = alloca i8, align 1
  %31 = alloca i32, align 4
  %32 = alloca i32, align 4
  %33 = alloca i32, align 4
  %34 = alloca i32, align 4
  store i8* %0, i8** %3, align 8
  call void @llvm.memset.p0i8.i64(i8* bitcast (%struct.data2* @cfig to i8*), i8 0, i64 3360, i32 8, i1 false)
  %35 = call i32 @getpid() #10
  store i32 %35, i32* getelementptr inbounds (%struct.data2, %struct.data2* @cfig, i32 0, i32 11), align 4
  store %struct._IO_FILE* null, %struct._IO_FILE** %7, align 8
  %36 = load i8, i8* @verbatim, align 1
  %37 = trunc i8 %36 to i1
  br i1 %37, label %38, label %40

; <label>:38:                                     ; preds = %1
  store i8 2, i8* getelementptr inbounds (%struct.data2, %struct.data2* @cfig, i32 0, i32 12), align 8
  %39 = call i32 (i8*, ...) @printf(i8* getelementptr inbounds ([5 x i8], [5 x i8]* @.str.57, i32 0, i32 0), i8* getelementptr inbounds ([55 x i8], [55 x i8]* @sVersion, i32 0, i32 0))
  br label %72

; <label>:40:                                     ; preds = %1
  %41 = call %struct._IO_FILE* @_Z11openSectionPKchPc(i8* getelementptr inbounds ([8 x i8], [8 x i8]* @.str.58, i32 0, i32 0), i8 zeroext 1, i8* getelementptr inbounds ([256 x i8], [256 x i8]* @iniFile, i32 0, i32 0))
  store %struct._IO_FILE* %41, %struct._IO_FILE** %7, align 8
  %42 = icmp ne %struct._IO_FILE* %41, null
  br i1 %42, label %43, label %71

; <label>:43:                                     ; preds = %40
  store i8 1, i8* getelementptr inbounds (%struct.data2, %struct.data2* @cfig, i32 0, i32 12), align 8
  store i8 0, i8* getelementptr inbounds ([256 x i8], [256 x i8]* @tempbuff, i64 0, i64 0), align 16
  br label %44

; <label>:44:                                     ; preds = %69, %43
  %45 = getelementptr inbounds [512 x i8], [512 x i8]* %4, i32 0, i32 0
  %46 = load %struct._IO_FILE*, %struct._IO_FILE** %7, align 8
  %47 = call i8* @_Z11readSectionPcP8_IO_FILE(i8* %45, %struct._IO_FILE* %46)
  %48 = icmp ne i8* %47, null
  br i1 %48, label %49, label %70

; <label>:49:                                     ; preds = %44
  %50 = getelementptr inbounds [512 x i8], [512 x i8]* %4, i32 0, i32 0
  %51 = call i32 @strcasecmp(i8* %50, i8* getelementptr inbounds ([5 x i8], [5 x i8]* @.str.59, i32 0, i32 0)) #11
  %52 = icmp ne i32 %51, 0
  br i1 %52, label %54, label %53

; <label>:53:                                     ; preds = %49
  store i8 0, i8* getelementptr inbounds (%struct.data2, %struct.data2* @cfig, i32 0, i32 12), align 8
  br label %69

; <label>:54:                                     ; preds = %49
  %55 = getelementptr inbounds [512 x i8], [512 x i8]* %4, i32 0, i32 0
  %56 = call i32 @strcasecmp(i8* %55, i8* getelementptr inbounds ([7 x i8], [7 x i8]* @.str.60, i32 0, i32 0)) #11
  %57 = icmp ne i32 %56, 0
  br i1 %57, label %59, label %58

; <label>:58:                                     ; preds = %54
  store i8 1, i8* getelementptr inbounds (%struct.data2, %struct.data2* @cfig, i32 0, i32 12), align 8
  br label %68

; <label>:59:                                     ; preds = %54
  %60 = getelementptr inbounds [512 x i8], [512 x i8]* %4, i32 0, i32 0
  %61 = call i32 @strcasecmp(i8* %60, i8* getelementptr inbounds ([4 x i8], [4 x i8]* @.str.61, i32 0, i32 0)) #11
  %62 = icmp ne i32 %61, 0
  br i1 %62, label %64, label %63

; <label>:63:                                     ; preds = %59
  store i8 2, i8* getelementptr inbounds (%struct.data2, %struct.data2* @cfig, i32 0, i32 12), align 8
  br label %67

; <label>:64:                                     ; preds = %59
  %65 = getelementptr inbounds [512 x i8], [512 x i8]* %4, i32 0, i32 0
  %66 = call i32 (i8*, i8*, ...) @sprintf(i8* getelementptr inbounds ([256 x i8], [256 x i8]* @tempbuff, i32 0, i32 0), i8* getelementptr inbounds ([40 x i8], [40 x i8]* @.str.62, i32 0, i32 0), i8* %65) #10
  br label %67

; <label>:67:                                     ; preds = %64, %63
  br label %68

; <label>:68:                                     ; preds = %67, %58
  br label %69

; <label>:69:                                     ; preds = %68, %53
  br label %44

; <label>:70:                                     ; preds = %44
  br label %71

; <label>:71:                                     ; preds = %70, %40
  br label %72

; <label>:72:                                     ; preds = %71, %38
  %73 = load i8, i8* @verbatim, align 1
  %74 = trunc i8 %73 to i1
  br i1 %74, label %100, label %75

; <label>:75:                                     ; preds = %72
  %76 = load i8, i8* getelementptr inbounds (%struct.data2, %struct.data2* @cfig, i32 0, i32 12), align 8
  %77 = icmp ne i8 %76, 0
  br i1 %77, label %78, label %100

; <label>:78:                                     ; preds = %75
  %79 = load i8, i8* getelementptr inbounds ([256 x i8], [256 x i8]* @logFile, i64 0, i64 0), align 16
  %80 = icmp ne i8 %79, 0
  br i1 %80, label %81, label %100

; <label>:81:                                     ; preds = %78
  %82 = call i64 @time(i64* null) #10
  store i64 %82, i64* %8, align 8
  %83 = call %struct.tm* @localtime(i64* %8) #10
  store %struct.tm* %83, %struct.tm** %9, align 8
  %84 = load %struct.tm*, %struct.tm** %9, align 8
  %85 = getelementptr inbounds %struct.tm, %struct.tm* %84, i32 0, i32 7
  %86 = load i32, i32* %85, align 4
  %87 = trunc i32 %86 to i16
  store i16 %87, i16* @loggingDay, align 2
  %88 = load %struct.tm*, %struct.tm** %9, align 8
  %89 = call i64 @strftime(i8* getelementptr inbounds ([256 x i8], [256 x i8]* @extbuff, i32 0, i32 0), i64 256, i8* getelementptr inbounds ([256 x i8], [256 x i8]* @logFile, i32 0, i32 0), %struct.tm* %88) #10
  %90 = call %struct._IO_FILE* @fopen(i8* getelementptr inbounds ([256 x i8], [256 x i8]* @extbuff, i32 0, i32 0), i8* getelementptr inbounds ([3 x i8], [3 x i8]* @.str.63, i32 0, i32 0))
  store %struct._IO_FILE* %90, %struct._IO_FILE** getelementptr inbounds (%struct.data2, %struct.data2* @cfig, i32 0, i32 2), align 8
  %91 = load %struct._IO_FILE*, %struct._IO_FILE** getelementptr inbounds (%struct.data2, %struct.data2* @cfig, i32 0, i32 2), align 8
  %92 = icmp ne %struct._IO_FILE* %91, null
  br i1 %92, label %93, label %99

; <label>:93:                                     ; preds = %81
  %94 = call i32 (i8*, i8*, ...) @sprintf(i8* getelementptr inbounds ([256 x i8], [256 x i8]* @logBuff, i32 0, i32 0), i8* getelementptr inbounds ([14 x i8], [14 x i8]* @.str.64, i32 0, i32 0), i8* getelementptr inbounds ([55 x i8], [55 x i8]* @sVersion, i32 0, i32 0)) #10
  call void @_Z7logMessPch(i8* getelementptr inbounds ([256 x i8], [256 x i8]* @logBuff, i32 0, i32 0), i8 zeroext 1)
  %95 = load i8, i8* getelementptr inbounds ([256 x i8], [256 x i8]* @tempbuff, i64 0, i64 0), align 16
  %96 = icmp ne i8 %95, 0
  br i1 %96, label %97, label %98

; <label>:97:                                     ; preds = %93
  call void @_Z7logMessPch(i8* getelementptr inbounds ([256 x i8], [256 x i8]* @tempbuff, i32 0, i32 0), i8 zeroext 0)
  br label %98

; <label>:98:                                     ; preds = %97, %93
  br label %99

; <label>:99:                                     ; preds = %98, %81
  br label %100

; <label>:100:                                    ; preds = %99, %78, %75, %72
  %101 = call %struct._IO_FILE* @fopen(i8* getelementptr inbounds ([256 x i8], [256 x i8]* @iniFile, i32 0, i32 0), i8* getelementptr inbounds ([3 x i8], [3 x i8]* @.str.30, i32 0, i32 0))
  store %struct._IO_FILE* %101, %struct._IO_FILE** %7, align 8
  %102 = icmp ne %struct._IO_FILE* %101, null
  br i1 %102, label %103, label %106

; <label>:103:                                    ; preds = %100
  %104 = load %struct._IO_FILE*, %struct._IO_FILE** %7, align 8
  %105 = call i32 @fclose(%struct._IO_FILE* %104)
  br label %108

; <label>:106:                                    ; preds = %100
  %107 = call i32 (i8*, i8*, ...) @sprintf(i8* getelementptr inbounds ([256 x i8], [256 x i8]* @logBuff, i32 0, i32 0), i8* getelementptr inbounds ([50 x i8], [50 x i8]* @.str.65, i32 0, i32 0), i8* getelementptr inbounds ([256 x i8], [256 x i8]* @iniFile, i32 0, i32 0)) #10
  call void @_Z7logMessPch(i8* getelementptr inbounds ([256 x i8], [256 x i8]* @logBuff, i32 0, i32 0), i8 zeroext 1)
  br label %108

; <label>:108:                                    ; preds = %106, %103
  %109 = call %struct._IO_FILE* @_Z11openSectionPKchPc(i8* getelementptr inbounds ([5 x i8], [5 x i8]* @.str.66, i32 0, i32 0), i8 zeroext 1, i8* getelementptr inbounds ([256 x i8], [256 x i8]* @iniFile, i32 0, i32 0))
  store %struct._IO_FILE* %109, %struct._IO_FILE** %7, align 8
  %110 = icmp ne %struct._IO_FILE* %109, null
  br i1 %110, label %111, label %298

; <label>:111:                                    ; preds = %108
  br label %112

; <label>:112:                                    ; preds = %296, %111
  %113 = getelementptr inbounds [512 x i8], [512 x i8]* %4, i32 0, i32 0
  %114 = load %struct._IO_FILE*, %struct._IO_FILE** %7, align 8
  %115 = call i8* @_Z11readSectionPcP8_IO_FILE(i8* %113, %struct._IO_FILE* %114)
  %116 = icmp ne i8* %115, null
  br i1 %116, label %117, label %297

; <label>:117:                                    ; preds = %112
  %118 = getelementptr inbounds [512 x i8], [512 x i8]* %5, i32 0, i32 0
  %119 = getelementptr inbounds [512 x i8], [512 x i8]* %6, i32 0, i32 0
  %120 = getelementptr inbounds [512 x i8], [512 x i8]* %4, i32 0, i32 0
  call void @_Z7mySplitPcS_S_c(i8* %118, i8* %119, i8* %120, i8 signext 61)
  %121 = getelementptr inbounds [512 x i8], [512 x i8]* %6, i32 0, i32 0
  %122 = call i64 @strlen(i8* %121) #11
  %123 = icmp ne i64 %122, 0
  br i1 %123, label %124, label %257

; <label>:124:                                    ; preds = %117
  %125 = load i8, i8* getelementptr inbounds (%struct.data2, %struct.data2* @cfig, i32 0, i32 1, i64 0, i32 0, i64 0), align 8
  %126 = icmp ne i8 %125, 0
  br i1 %126, label %133, label %127

; <label>:127:                                    ; preds = %124
  %128 = load i8, i8* getelementptr inbounds (%struct.data2, %struct.data2* @cfig, i32 0, i32 1, i64 0, i32 1, i64 0), align 8
  %129 = icmp ne i8 %128, 0
  br i1 %129, label %130, label %133

; <label>:130:                                    ; preds = %127
  %131 = getelementptr inbounds [512 x i8], [512 x i8]* %4, i32 0, i32 0
  %132 = call i32 (i8*, i8*, ...) @sprintf(i8* getelementptr inbounds ([256 x i8], [256 x i8]* @logBuff, i32 0, i32 0), i8* getelementptr inbounds ([60 x i8], [60 x i8]* @.str.67, i32 0, i32 0), i8* %131) #10
  call void @_Z7logMessPch(i8* getelementptr inbounds ([256 x i8], [256 x i8]* @logBuff, i32 0, i32 0), i8 zeroext 1)
  br label %256

; <label>:133:                                    ; preds = %127, %124
  %134 = getelementptr inbounds [512 x i8], [512 x i8]* %5, i32 0, i32 0
  %135 = load i8, i8* @notFileSep, align 1
  %136 = sext i8 %135 to i32
  %137 = call i8* @strchr(i8* %134, i32 %136) #11
  %138 = icmp ne i8* %137, null
  br i1 %138, label %157, label %139

; <label>:139:                                    ; preds = %133
  %140 = getelementptr inbounds [512 x i8], [512 x i8]* %5, i32 0, i32 0
  %141 = load i8, i8* @fileSep, align 1
  %142 = sext i8 %141 to i32
  %143 = call i8* @strchr(i8* %140, i32 %142) #11
  %144 = icmp ne i8* %143, null
  br i1 %144, label %157, label %145

; <label>:145:                                    ; preds = %139
  %146 = getelementptr inbounds [512 x i8], [512 x i8]* %5, i32 0, i32 0
  %147 = call i8* @strchr(i8* %146, i32 62) #11
  %148 = icmp ne i8* %147, null
  br i1 %148, label %157, label %149

; <label>:149:                                    ; preds = %145
  %150 = getelementptr inbounds [512 x i8], [512 x i8]* %5, i32 0, i32 0
  %151 = call i8* @strchr(i8* %150, i32 60) #11
  %152 = icmp ne i8* %151, null
  br i1 %152, label %157, label %153

; <label>:153:                                    ; preds = %149
  %154 = getelementptr inbounds [512 x i8], [512 x i8]* %5, i32 0, i32 0
  %155 = call i8* @strchr(i8* %154, i32 46) #11
  %156 = icmp ne i8* %155, null
  br i1 %156, label %157, label %160

; <label>:157:                                    ; preds = %153, %149, %145, %139, %133
  %158 = getelementptr inbounds [512 x i8], [512 x i8]* %5, i32 0, i32 0
  %159 = call i32 (i8*, i8*, ...) @sprintf(i8* getelementptr inbounds ([256 x i8], [256 x i8]* @logBuff, i32 0, i32 0), i8* getelementptr inbounds ([57 x i8], [57 x i8]* @.str.68, i32 0, i32 0), i8* %158) #10
  call void @_Z7logMessPch(i8* getelementptr inbounds ([256 x i8], [256 x i8]* @logBuff, i32 0, i32 0), i8 zeroext 1)
  br label %255

; <label>:160:                                    ; preds = %153
  %161 = getelementptr inbounds [512 x i8], [512 x i8]* %5, i64 0, i64 0
  %162 = load i8, i8* %161, align 16
  %163 = icmp ne i8 %162, 0
  br i1 %163, label %164, label %251

; <label>:164:                                    ; preds = %160
  %165 = getelementptr inbounds [512 x i8], [512 x i8]* %5, i32 0, i32 0
  %166 = call i64 @strlen(i8* %165) #11
  %167 = icmp ult i64 %166, 64
  br i1 %167, label %168, label %251

; <label>:168:                                    ; preds = %164
  %169 = getelementptr inbounds [512 x i8], [512 x i8]* %6, i64 0, i64 0
  %170 = load i8, i8* %169, align 16
  %171 = icmp ne i8 %170, 0
  br i1 %171, label %172, label %251

; <label>:172:                                    ; preds = %168
  store i32 0, i32* %10, align 4
  br label %173

; <label>:173:                                    ; preds = %247, %172
  %174 = load i32, i32* %10, align 4
  %175 = icmp slt i32 %174, 8
  br i1 %175, label %176, label %250

; <label>:176:                                    ; preds = %173
  %177 = load i32, i32* %10, align 4
  %178 = sext i32 %177 to i64
  %179 = getelementptr inbounds [8 x %struct.home], [8 x %struct.home]* getelementptr inbounds (%struct.data2, %struct.data2* @cfig, i32 0, i32 1), i64 0, i64 %178
  %180 = getelementptr inbounds %struct.home, %struct.home* %179, i32 0, i32 0
  %181 = getelementptr inbounds [64 x i8], [64 x i8]* %180, i64 0, i64 0
  %182 = load i8, i8* %181, align 8
  %183 = icmp ne i8 %182, 0
  br i1 %183, label %184, label %196

; <label>:184:                                    ; preds = %176
  %185 = getelementptr inbounds [512 x i8], [512 x i8]* %5, i32 0, i32 0
  %186 = load i32, i32* %10, align 4
  %187 = sext i32 %186 to i64
  %188 = getelementptr inbounds [8 x %struct.home], [8 x %struct.home]* getelementptr inbounds (%struct.data2, %struct.data2* @cfig, i32 0, i32 1), i64 0, i64 %187
  %189 = getelementptr inbounds %struct.home, %struct.home* %188, i32 0, i32 0
  %190 = getelementptr inbounds [64 x i8], [64 x i8]* %189, i32 0, i32 0
  %191 = call i32 @strcasecmp(i8* %185, i8* %190) #11
  %192 = icmp ne i32 %191, 0
  br i1 %192, label %196, label %193

; <label>:193:                                    ; preds = %184
  %194 = getelementptr inbounds [512 x i8], [512 x i8]* %4, i32 0, i32 0
  %195 = call i32 (i8*, i8*, ...) @sprintf(i8* getelementptr inbounds ([256 x i8], [256 x i8]* @logBuff, i32 0, i32 0), i8* getelementptr inbounds ([44 x i8], [44 x i8]* @.str.69, i32 0, i32 0), i8* %194) #10
  call void @_Z7logMessPch(i8* getelementptr inbounds ([256 x i8], [256 x i8]* @logBuff, i32 0, i32 0), i8 zeroext 1)
  br label %250

; <label>:196:                                    ; preds = %184, %176
  %197 = load i32, i32* %10, align 4
  %198 = sext i32 %197 to i64
  %199 = getelementptr inbounds [8 x %struct.home], [8 x %struct.home]* getelementptr inbounds (%struct.data2, %struct.data2* @cfig, i32 0, i32 1), i64 0, i64 %198
  %200 = getelementptr inbounds %struct.home, %struct.home* %199, i32 0, i32 0
  %201 = getelementptr inbounds [64 x i8], [64 x i8]* %200, i64 0, i64 0
  %202 = load i8, i8* %201, align 8
  %203 = icmp ne i8 %202, 0
  br i1 %203, label %245, label %204

; <label>:204:                                    ; preds = %196
  %205 = load i32, i32* %10, align 4
  %206 = sext i32 %205 to i64
  %207 = getelementptr inbounds [8 x %struct.home], [8 x %struct.home]* getelementptr inbounds (%struct.data2, %struct.data2* @cfig, i32 0, i32 1), i64 0, i64 %206
  %208 = getelementptr inbounds %struct.home, %struct.home* %207, i32 0, i32 0
  %209 = getelementptr inbounds [64 x i8], [64 x i8]* %208, i32 0, i32 0
  %210 = getelementptr inbounds [512 x i8], [512 x i8]* %5, i32 0, i32 0
  %211 = call i8* @strcpy(i8* %209, i8* %210) #10
  %212 = load i32, i32* %10, align 4
  %213 = sext i32 %212 to i64
  %214 = getelementptr inbounds [8 x %struct.home], [8 x %struct.home]* getelementptr inbounds (%struct.data2, %struct.data2* @cfig, i32 0, i32 1), i64 0, i64 %213
  %215 = getelementptr inbounds %struct.home, %struct.home* %214, i32 0, i32 1
  %216 = getelementptr inbounds [256 x i8], [256 x i8]* %215, i32 0, i32 0
  %217 = getelementptr inbounds [512 x i8], [512 x i8]* %6, i32 0, i32 0
  %218 = call i8* @strcpy(i8* %216, i8* %217) #10
  %219 = load i32, i32* %10, align 4
  %220 = sext i32 %219 to i64
  %221 = getelementptr inbounds [8 x %struct.home], [8 x %struct.home]* getelementptr inbounds (%struct.data2, %struct.data2* @cfig, i32 0, i32 1), i64 0, i64 %220
  %222 = getelementptr inbounds %struct.home, %struct.home* %221, i32 0, i32 1
  %223 = load i32, i32* %10, align 4
  %224 = sext i32 %223 to i64
  %225 = getelementptr inbounds [8 x %struct.home], [8 x %struct.home]* getelementptr inbounds (%struct.data2, %struct.data2* @cfig, i32 0, i32 1), i64 0, i64 %224
  %226 = getelementptr inbounds %struct.home, %struct.home* %225, i32 0, i32 1
  %227 = getelementptr inbounds [256 x i8], [256 x i8]* %226, i32 0, i32 0
  %228 = call i64 @strlen(i8* %227) #11
  %229 = sub i64 %228, 1
  %230 = getelementptr inbounds [256 x i8], [256 x i8]* %222, i64 0, i64 %229
  %231 = load i8, i8* %230, align 1
  %232 = sext i8 %231 to i32
  %233 = load i8, i8* @fileSep, align 1
  %234 = sext i8 %233 to i32
  %235 = icmp ne i32 %232, %234
  br i1 %235, label %236, label %244

; <label>:236:                                    ; preds = %204
  %237 = load i8, i8* @fileSep, align 1
  store i8 %237, i8* getelementptr inbounds ([256 x i8], [256 x i8]* @tempbuff, i64 0, i64 0), align 16
  store i8 0, i8* getelementptr inbounds ([256 x i8], [256 x i8]* @tempbuff, i64 0, i64 1), align 1
  %238 = load i32, i32* %10, align 4
  %239 = sext i32 %238 to i64
  %240 = getelementptr inbounds [8 x %struct.home], [8 x %struct.home]* getelementptr inbounds (%struct.data2, %struct.data2* @cfig, i32 0, i32 1), i64 0, i64 %239
  %241 = getelementptr inbounds %struct.home, %struct.home* %240, i32 0, i32 1
  %242 = getelementptr inbounds [256 x i8], [256 x i8]* %241, i32 0, i32 0
  %243 = call i8* @strcat(i8* %242, i8* getelementptr inbounds ([256 x i8], [256 x i8]* @tempbuff, i32 0, i32 0)) #10
  br label %244

; <label>:244:                                    ; preds = %236, %204
  br label %250

; <label>:245:                                    ; preds = %196
  br label %246

; <label>:246:                                    ; preds = %245
  br label %247

; <label>:247:                                    ; preds = %246
  %248 = load i32, i32* %10, align 4
  %249 = add nsw i32 %248, 1
  store i32 %249, i32* %10, align 4
  br label %173

; <label>:250:                                    ; preds = %244, %193, %173
  br label %254

; <label>:251:                                    ; preds = %168, %164, %160
  %252 = getelementptr inbounds [512 x i8], [512 x i8]* %5, i32 0, i32 0
  %253 = call i32 (i8*, i8*, ...) @sprintf(i8* getelementptr inbounds ([256 x i8], [256 x i8]* @logBuff, i32 0, i32 0), i8* getelementptr inbounds ([40 x i8], [40 x i8]* @.str.70, i32 0, i32 0), i8* %252) #10
  call void @_Z7logMessPch(i8* getelementptr inbounds ([256 x i8], [256 x i8]* @logBuff, i32 0, i32 0), i8 zeroext 1)
  br label %254

; <label>:254:                                    ; preds = %251, %250
  br label %255

; <label>:255:                                    ; preds = %254, %157
  br label %256

; <label>:256:                                    ; preds = %255, %130
  br label %296

; <label>:257:                                    ; preds = %117
  %258 = load i8, i8* getelementptr inbounds (%struct.data2, %struct.data2* @cfig, i32 0, i32 1, i64 0, i32 0, i64 0), align 8
  %259 = icmp ne i8 %258, 0
  br i1 %259, label %278, label %260

; <label>:260:                                    ; preds = %257
  %261 = load i8, i8* getelementptr inbounds (%struct.data2, %struct.data2* @cfig, i32 0, i32 1, i64 0, i32 1, i64 0), align 8
  %262 = icmp ne i8 %261, 0
  br i1 %262, label %278, label %263

; <label>:263:                                    ; preds = %260
  %264 = getelementptr inbounds [512 x i8], [512 x i8]* %5, i32 0, i32 0
  %265 = call i8* @strcpy(i8* getelementptr inbounds (%struct.data2, %struct.data2* @cfig, i32 0, i32 1, i64 0, i32 1, i32 0), i8* %264) #10
  %266 = call i64 @strlen(i8* getelementptr inbounds (%struct.data2, %struct.data2* @cfig, i32 0, i32 1, i64 0, i32 1, i32 0)) #11
  %267 = sub i64 %266, 1
  %268 = getelementptr inbounds [256 x i8], [256 x i8]* getelementptr inbounds (%struct.data2, %struct.data2* @cfig, i32 0, i32 1, i64 0, i32 1), i64 0, i64 %267
  %269 = load i8, i8* %268, align 1
  %270 = sext i8 %269 to i32
  %271 = load i8, i8* @fileSep, align 1
  %272 = sext i8 %271 to i32
  %273 = icmp ne i32 %270, %272
  br i1 %273, label %274, label %277

; <label>:274:                                    ; preds = %263
  %275 = load i8, i8* @fileSep, align 1
  store i8 %275, i8* getelementptr inbounds ([256 x i8], [256 x i8]* @tempbuff, i64 0, i64 0), align 16
  store i8 0, i8* getelementptr inbounds ([256 x i8], [256 x i8]* @tempbuff, i64 0, i64 1), align 1
  %276 = call i8* @strcat(i8* getelementptr inbounds (%struct.data2, %struct.data2* @cfig, i32 0, i32 1, i64 0, i32 1, i32 0), i8* getelementptr inbounds ([256 x i8], [256 x i8]* @tempbuff, i32 0, i32 0)) #10
  br label %277

; <label>:277:                                    ; preds = %274, %263
  br label %295

; <label>:278:                                    ; preds = %260, %257
  %279 = load i8, i8* getelementptr inbounds (%struct.data2, %struct.data2* @cfig, i32 0, i32 1, i64 0, i32 0, i64 0), align 8
  %280 = icmp ne i8 %279, 0
  br i1 %280, label %281, label %284

; <label>:281:                                    ; preds = %278
  %282 = getelementptr inbounds [512 x i8], [512 x i8]* %4, i32 0, i32 0
  %283 = call i32 (i8*, i8*, ...) @sprintf(i8* getelementptr inbounds ([256 x i8], [256 x i8]* @logBuff, i32 0, i32 0), i8* getelementptr inbounds ([60 x i8], [60 x i8]* @.str.67, i32 0, i32 0), i8* %282) #10
  call void @_Z7logMessPch(i8* getelementptr inbounds ([256 x i8], [256 x i8]* @logBuff, i32 0, i32 0), i8 zeroext 1)
  br label %294

; <label>:284:                                    ; preds = %278
  %285 = load i8, i8* getelementptr inbounds (%struct.data2, %struct.data2* @cfig, i32 0, i32 1, i64 0, i32 1, i64 0), align 8
  %286 = icmp ne i8 %285, 0
  br i1 %286, label %287, label %290

; <label>:287:                                    ; preds = %284
  %288 = getelementptr inbounds [512 x i8], [512 x i8]* %4, i32 0, i32 0
  %289 = call i32 (i8*, i8*, ...) @sprintf(i8* getelementptr inbounds ([256 x i8], [256 x i8]* @logBuff, i32 0, i32 0), i8* getelementptr inbounds ([43 x i8], [43 x i8]* @.str.71, i32 0, i32 0), i8* %288) #10
  call void @_Z7logMessPch(i8* getelementptr inbounds ([256 x i8], [256 x i8]* @logBuff, i32 0, i32 0), i8 zeroext 1)
  br label %293

; <label>:290:                                    ; preds = %284
  %291 = getelementptr inbounds [512 x i8], [512 x i8]* %4, i32 0, i32 0
  %292 = call i32 (i8*, i8*, ...) @sprintf(i8* getelementptr inbounds ([256 x i8], [256 x i8]* @logBuff, i32 0, i32 0), i8* getelementptr inbounds ([58 x i8], [58 x i8]* @.str.72, i32 0, i32 0), i8* %291) #10
  call void @_Z7logMessPch(i8* getelementptr inbounds ([256 x i8], [256 x i8]* @logBuff, i32 0, i32 0), i8 zeroext 1)
  br label %293

; <label>:293:                                    ; preds = %290, %287
  br label %294

; <label>:294:                                    ; preds = %293, %281
  br label %295

; <label>:295:                                    ; preds = %294, %277
  br label %296

; <label>:296:                                    ; preds = %295, %256
  br label %112

; <label>:297:                                    ; preds = %112
  br label %298

; <label>:298:                                    ; preds = %297, %108
  store i8 1, i8* getelementptr inbounds (%struct.data2, %struct.data2* @cfig, i32 0, i32 6), align 8
  %299 = call %struct._IO_FILE* @_Z11openSectionPKchPc(i8* getelementptr inbounds ([13 x i8], [13 x i8]* @.str.73, i32 0, i32 0), i8 zeroext 1, i8* getelementptr inbounds ([256 x i8], [256 x i8]* @iniFile, i32 0, i32 0))
  store %struct._IO_FILE* %299, %struct._IO_FILE** %7, align 8
  %300 = icmp ne %struct._IO_FILE* %299, null
  br i1 %300, label %301, label %508

; <label>:301:                                    ; preds = %298
  br label %302

; <label>:302:                                    ; preds = %506, %301
  %303 = getelementptr inbounds [512 x i8], [512 x i8]* %4, i32 0, i32 0
  %304 = load %struct._IO_FILE*, %struct._IO_FILE** %7, align 8
  %305 = call i8* @_Z11readSectionPcP8_IO_FILE(i8* %303, %struct._IO_FILE* %304)
  %306 = icmp ne i8* %305, null
  br i1 %306, label %307, label %507

; <label>:307:                                    ; preds = %302
  %308 = getelementptr inbounds [512 x i8], [512 x i8]* %5, i32 0, i32 0
  %309 = getelementptr inbounds [512 x i8], [512 x i8]* %6, i32 0, i32 0
  %310 = getelementptr inbounds [512 x i8], [512 x i8]* %4, i32 0, i32 0
  call void @_Z7mySplitPcS_S_c(i8* %308, i8* %309, i8* %310, i8 signext 61)
  %311 = getelementptr inbounds [512 x i8], [512 x i8]* %6, i32 0, i32 0
  %312 = call i64 @strlen(i8* %311) #11
  %313 = icmp ne i64 %312, 0
  br i1 %313, label %314, label %506

; <label>:314:                                    ; preds = %307
  %315 = getelementptr inbounds [512 x i8], [512 x i8]* %5, i32 0, i32 0
  %316 = call i32 @strcasecmp(i8* %315, i8* getelementptr inbounds ([9 x i8], [9 x i8]* @.str.74, i32 0, i32 0)) #11
  %317 = icmp ne i32 %316, 0
  br i1 %317, label %358, label %318

; <label>:318:                                    ; preds = %314
  %319 = getelementptr inbounds [512 x i8], [512 x i8]* %6, i32 0, i32 0
  %320 = call i64 @strlen(i8* %319) #11
  %321 = icmp ult i64 %320, 128
  br i1 %321, label %322, label %354

; <label>:322:                                    ; preds = %318
  %323 = getelementptr inbounds [512 x i8], [512 x i8]* %6, i32 0, i32 0
  %324 = call %struct.passwd* @getpwnam(i8* %323)
  store %struct.passwd* %324, %struct.passwd** %11, align 8
  %325 = load %struct.passwd*, %struct.passwd** %11, align 8
  %326 = icmp ne %struct.passwd* %325, null
  br i1 %326, label %327, label %350

; <label>:327:                                    ; preds = %322
  %328 = load %struct.passwd*, %struct.passwd** %11, align 8
  %329 = getelementptr inbounds %struct.passwd, %struct.passwd* %328, i32 0, i32 2
  %330 = load i32, i32* %329, align 8
  store i32 %330, i32* getelementptr inbounds (%struct.data2, %struct.data2* @cfig, i32 0, i32 4), align 8
  %331 = load %struct.passwd*, %struct.passwd** %11, align 8
  %332 = getelementptr inbounds %struct.passwd, %struct.passwd* %331, i32 0, i32 3
  %333 = load i32, i32* %332, align 4
  store i32 %333, i32* getelementptr inbounds (%struct.data2, %struct.data2* @cfig, i32 0, i32 5), align 4
  %334 = getelementptr inbounds [512 x i8], [512 x i8]* %6, i32 0, i32 0
  %335 = call i8* @strcpy(i8* getelementptr inbounds (%struct.data2, %struct.data2* @cfig, i32 0, i32 3, i32 0), i8* %334) #10
  %336 = load i8, i8* getelementptr inbounds (%struct.data2, %struct.data2* @cfig, i32 0, i32 1, i64 0, i32 1, i64 0), align 8
  %337 = icmp ne i8 %336, 0
  br i1 %337, label %349, label %338

; <label>:338:                                    ; preds = %327
  %339 = load i32, i32* getelementptr inbounds (%struct.data2, %struct.data2* @cfig, i32 0, i32 4), align 8
  %340 = icmp ne i32 %339, 0
  br i1 %340, label %341, label %346

; <label>:341:                                    ; preds = %338
  %342 = load %struct.passwd*, %struct.passwd** %11, align 8
  %343 = getelementptr inbounds %struct.passwd, %struct.passwd* %342, i32 0, i32 5
  %344 = load i8*, i8** %343, align 8
  %345 = call i32 (i8*, i8*, ...) @sprintf(i8* getelementptr inbounds (%struct.data2, %struct.data2* @cfig, i32 0, i32 1, i64 0, i32 1, i32 0), i8* getelementptr inbounds ([4 x i8], [4 x i8]* @.str.75, i32 0, i32 0), i8* %344) #10
  br label %348

; <label>:346:                                    ; preds = %338
  %347 = call i8* @strcpy(i8* getelementptr inbounds (%struct.data2, %struct.data2* @cfig, i32 0, i32 1, i64 0, i32 1, i32 0), i8* getelementptr inbounds ([7 x i8], [7 x i8]* @.str.76, i32 0, i32 0)) #10
  br label %348

; <label>:348:                                    ; preds = %346, %341
  br label %349

; <label>:349:                                    ; preds = %348, %327
  br label %353

; <label>:350:                                    ; preds = %322
  %351 = getelementptr inbounds [512 x i8], [512 x i8]* %6, i32 0, i32 0
  %352 = call i32 (i8*, i8*, ...) @sprintf(i8* getelementptr inbounds ([256 x i8], [256 x i8]* @logBuff, i32 0, i32 0), i8* getelementptr inbounds ([55 x i8], [55 x i8]* @.str.77, i32 0, i32 0), i8* %351) #10
  call void @_Z7logMessPch(i8* getelementptr inbounds ([256 x i8], [256 x i8]* @logBuff, i32 0, i32 0), i8 zeroext 1)
  call void @exit(i32 1) #12
  unreachable

; <label>:353:                                    ; preds = %349
  br label %357

; <label>:354:                                    ; preds = %318
  %355 = getelementptr inbounds [512 x i8], [512 x i8]* %6, i32 0, i32 0
  %356 = call i32 (i8*, i8*, ...) @sprintf(i8* getelementptr inbounds ([256 x i8], [256 x i8]* @logBuff, i32 0, i32 0), i8* getelementptr inbounds ([55 x i8], [55 x i8]* @.str.78, i32 0, i32 0), i8* %355) #10
  call void @_Z7logMessPch(i8* getelementptr inbounds ([256 x i8], [256 x i8]* @logBuff, i32 0, i32 0), i8 zeroext 1)
  call void @exit(i32 1) #12
  unreachable

; <label>:357:                                    ; preds = %353
  br label %505

; <label>:358:                                    ; preds = %314
  %359 = getelementptr inbounds [512 x i8], [512 x i8]* %5, i32 0, i32 0
  %360 = call i32 @strcasecmp(i8* %359, i8* getelementptr inbounds ([8 x i8], [8 x i8]* @.str.27, i32 0, i32 0)) #11
  %361 = icmp ne i32 %360, 0
  br i1 %361, label %377, label %362

; <label>:362:                                    ; preds = %358
  %363 = getelementptr inbounds [512 x i8], [512 x i8]* %6, i32 0, i32 0
  %364 = call i64 @atol(i8* %363) #11
  %365 = trunc i64 %364 to i32
  store i32 %365, i32* %12, align 4
  %366 = load i32, i32* %12, align 4
  %367 = icmp ult i32 %366, 512
  br i1 %367, label %368, label %369

; <label>:368:                                    ; preds = %362
  store i32 512, i32* @blksize, align 4
  br label %376

; <label>:369:                                    ; preds = %362
  %370 = load i32, i32* %12, align 4
  %371 = icmp ugt i32 %370, 65464
  br i1 %371, label %372, label %373

; <label>:372:                                    ; preds = %369
  store i32 65464, i32* @blksize, align 4
  br label %375

; <label>:373:                                    ; preds = %369
  %374 = load i32, i32* %12, align 4
  store i32 %374, i32* @blksize, align 4
  br label %375

; <label>:375:                                    ; preds = %373, %372
  br label %376

; <label>:376:                                    ; preds = %375, %368
  br label %504

; <label>:377:                                    ; preds = %358
  %378 = getelementptr inbounds [512 x i8], [512 x i8]* %5, i32 0, i32 0
  %379 = call i32 @strcasecmp(i8* %378, i8* getelementptr inbounds ([15 x i8], [15 x i8]* @.str.79, i32 0, i32 0)) #11
  %380 = icmp ne i32 %379, 0
  br i1 %380, label %396, label %381

; <label>:381:                                    ; preds = %377
  %382 = getelementptr inbounds [512 x i8], [512 x i8]* %6, i32 0, i32 0
  %383 = call i64 @atol(i8* %382) #11
  %384 = trunc i64 %383 to i16
  store i16 %384, i16* @minThreads, align 2
  %385 = load i16, i16* @minThreads, align 2
  %386 = zext i16 %385 to i32
  %387 = icmp slt i32 %386, 1
  br i1 %387, label %388, label %389

; <label>:388:                                    ; preds = %381
  store i16 0, i16* @minThreads, align 2
  br label %395

; <label>:389:                                    ; preds = %381
  %390 = load i16, i16* @minThreads, align 2
  %391 = zext i16 %390 to i32
  %392 = icmp sgt i32 %391, 100
  br i1 %392, label %393, label %394

; <label>:393:                                    ; preds = %389
  store i16 100, i16* @minThreads, align 2
  br label %394

; <label>:394:                                    ; preds = %393, %389
  br label %395

; <label>:395:                                    ; preds = %394, %388
  br label %503

; <label>:396:                                    ; preds = %377
  %397 = getelementptr inbounds [512 x i8], [512 x i8]* %5, i32 0, i32 0
  %398 = call i32 @strcasecmp(i8* %397, i8* getelementptr inbounds ([8 x i8], [8 x i8]* @.str.41, i32 0, i32 0)) #11
  %399 = icmp ne i32 %398, 0
  br i1 %399, label %415, label %400

; <label>:400:                                    ; preds = %396
  %401 = getelementptr inbounds [512 x i8], [512 x i8]* %6, i32 0, i32 0
  %402 = call i64 @atol(i8* %401) #11
  %403 = trunc i64 %402 to i16
  store i16 %403, i16* @timeout, align 2
  %404 = load i16, i16* @timeout, align 2
  %405 = zext i16 %404 to i32
  %406 = icmp slt i32 %405, 1
  br i1 %406, label %407, label %408

; <label>:407:                                    ; preds = %400
  store i16 1, i16* @timeout, align 2
  br label %414

; <label>:408:                                    ; preds = %400
  %409 = load i16, i16* @timeout, align 2
  %410 = zext i16 %409 to i32
  %411 = icmp sgt i32 %410, 255
  br i1 %411, label %412, label %413

; <label>:412:                                    ; preds = %408
  store i16 255, i16* @timeout, align 2
  br label %413

; <label>:413:                                    ; preds = %412, %408
  br label %414

; <label>:414:                                    ; preds = %413, %407
  br label %502

; <label>:415:                                    ; preds = %396
  %416 = getelementptr inbounds [512 x i8], [512 x i8]* %5, i32 0, i32 0
  %417 = call i32 @strcasecmp(i8* %416, i8* getelementptr inbounds ([5 x i8], [5 x i8]* @.str.80, i32 0, i32 0)) #11
  %418 = icmp ne i32 %417, 0
  br i1 %418, label %428, label %419

; <label>:419:                                    ; preds = %415
  %420 = getelementptr inbounds [512 x i8], [512 x i8]* %6, i32 0, i32 0
  %421 = load i8, i8* %420, align 16
  %422 = sext i8 %421 to i32
  %423 = call i8* @strchr(i8* getelementptr inbounds ([3 x i8], [3 x i8]* @.str.81, i32 0, i32 0), i32 %422) #11
  %424 = icmp ne i8* %423, null
  br i1 %424, label %425, label %426

; <label>:425:                                    ; preds = %419
  store i8 1, i8* getelementptr inbounds (%struct.data2, %struct.data2* @cfig, i32 0, i32 6), align 8
  br label %427

; <label>:426:                                    ; preds = %419
  store i8 0, i8* getelementptr inbounds (%struct.data2, %struct.data2* @cfig, i32 0, i32 6), align 8
  br label %427

; <label>:427:                                    ; preds = %426, %425
  br label %501

; <label>:428:                                    ; preds = %415
  %429 = getelementptr inbounds [512 x i8], [512 x i8]* %5, i32 0, i32 0
  %430 = call i32 @strcasecmp(i8* %429, i8* getelementptr inbounds ([6 x i8], [6 x i8]* @.str.82, i32 0, i32 0)) #11
  %431 = icmp ne i32 %430, 0
  br i1 %431, label %441, label %432

; <label>:432:                                    ; preds = %428
  %433 = getelementptr inbounds [512 x i8], [512 x i8]* %6, i32 0, i32 0
  %434 = load i8, i8* %433, align 16
  %435 = sext i8 %434 to i32
  %436 = call i8* @strchr(i8* getelementptr inbounds ([3 x i8], [3 x i8]* @.str.81, i32 0, i32 0), i32 %435) #11
  %437 = icmp ne i8* %436, null
  br i1 %437, label %438, label %439

; <label>:438:                                    ; preds = %432
  store i8 1, i8* getelementptr inbounds (%struct.data2, %struct.data2* @cfig, i32 0, i32 7), align 1
  br label %440

; <label>:439:                                    ; preds = %432
  store i8 0, i8* getelementptr inbounds (%struct.data2, %struct.data2* @cfig, i32 0, i32 7), align 1
  br label %440

; <label>:440:                                    ; preds = %439, %438
  br label %500

; <label>:441:                                    ; preds = %428
  %442 = getelementptr inbounds [512 x i8], [512 x i8]* %5, i32 0, i32 0
  %443 = call i32 @strcasecmp(i8* %442, i8* getelementptr inbounds ([10 x i8], [10 x i8]* @.str.83, i32 0, i32 0)) #11
  %444 = icmp ne i32 %443, 0
  br i1 %444, label %454, label %445

; <label>:445:                                    ; preds = %441
  %446 = getelementptr inbounds [512 x i8], [512 x i8]* %6, i32 0, i32 0
  %447 = load i8, i8* %446, align 16
  %448 = sext i8 %447 to i32
  %449 = call i8* @strchr(i8* getelementptr inbounds ([3 x i8], [3 x i8]* @.str.81, i32 0, i32 0), i32 %448) #11
  %450 = icmp ne i8* %449, null
  br i1 %450, label %451, label %452

; <label>:451:                                    ; preds = %445
  store i8 1, i8* getelementptr inbounds (%struct.data2, %struct.data2* @cfig, i32 0, i32 8), align 2
  br label %453

; <label>:452:                                    ; preds = %445
  store i8 0, i8* getelementptr inbounds (%struct.data2, %struct.data2* @cfig, i32 0, i32 8), align 2
  br label %453

; <label>:453:                                    ; preds = %452, %451
  br label %499

; <label>:454:                                    ; preds = %441
  %455 = getelementptr inbounds [512 x i8], [512 x i8]* %5, i32 0, i32 0
  %456 = call i32 @strcasecmp(i8* %455, i8* getelementptr inbounds ([11 x i8], [11 x i8]* @.str.84, i32 0, i32 0)) #11
  %457 = icmp ne i32 %456, 0
  br i1 %457, label %495, label %458

; <label>:458:                                    ; preds = %454
  %459 = getelementptr inbounds [512 x i8], [512 x i8]* %6, i32 0, i32 0
  %460 = call i8* @strchr(i8* %459, i32 45) #11
  store i8* %460, i8** %13, align 8
  %461 = load i8*, i8** %13, align 8
  %462 = icmp ne i8* %461, null
  br i1 %462, label %463, label %491

; <label>:463:                                    ; preds = %458
  %464 = load i8*, i8** %13, align 8
  store i8 0, i8* %464, align 1
  %465 = getelementptr inbounds [512 x i8], [512 x i8]* %6, i32 0, i32 0
  %466 = call i64 @atol(i8* %465) #11
  %467 = trunc i64 %466 to i32
  store i32 %467, i32* getelementptr inbounds (%struct.data2, %struct.data2* @cfig, i32 0, i32 9), align 4
  %468 = load i8*, i8** %13, align 8
  %469 = getelementptr inbounds i8, i8* %468, i32 1
  store i8* %469, i8** %13, align 8
  %470 = call i64 @atol(i8* %469) #11
  %471 = trunc i64 %470 to i32
  store i32 %471, i32* getelementptr inbounds (%struct.data2, %struct.data2* @cfig, i32 0, i32 10), align 8
  %472 = load i32, i32* getelementptr inbounds (%struct.data2, %struct.data2* @cfig, i32 0, i32 9), align 4
  %473 = icmp slt i32 %472, 1024
  br i1 %473, label %487, label %474

; <label>:474:                                    ; preds = %463
  %475 = load i32, i32* getelementptr inbounds (%struct.data2, %struct.data2* @cfig, i32 0, i32 9), align 4
  %476 = icmp sge i32 %475, 65535
  br i1 %476, label %487, label %477

; <label>:477:                                    ; preds = %474
  %478 = load i32, i32* getelementptr inbounds (%struct.data2, %struct.data2* @cfig, i32 0, i32 10), align 8
  %479 = icmp slt i32 %478, 1024
  br i1 %479, label %487, label %480

; <label>:480:                                    ; preds = %477
  %481 = load i32, i32* getelementptr inbounds (%struct.data2, %struct.data2* @cfig, i32 0, i32 10), align 8
  %482 = icmp sge i32 %481, 65535
  br i1 %482, label %487, label %483

; <label>:483:                                    ; preds = %480
  %484 = load i32, i32* getelementptr inbounds (%struct.data2, %struct.data2* @cfig, i32 0, i32 9), align 4
  %485 = load i32, i32* getelementptr inbounds (%struct.data2, %struct.data2* @cfig, i32 0, i32 10), align 8
  %486 = icmp sgt i32 %484, %485
  br i1 %486, label %487, label %490

; <label>:487:                                    ; preds = %483, %480, %477, %474, %463
  store i32 0, i32* getelementptr inbounds (%struct.data2, %struct.data2* @cfig, i32 0, i32 9), align 4
  store i32 0, i32* getelementptr inbounds (%struct.data2, %struct.data2* @cfig, i32 0, i32 10), align 8
  %488 = getelementptr inbounds [512 x i8], [512 x i8]* %6, i32 0, i32 0
  %489 = call i32 (i8*, i8*, ...) @sprintf(i8* getelementptr inbounds ([256 x i8], [256 x i8]* @logBuff, i32 0, i32 0), i8* getelementptr inbounds ([22 x i8], [22 x i8]* @.str.85, i32 0, i32 0), i8* %488) #10
  call void @_Z7logMessPch(i8* getelementptr inbounds ([256 x i8], [256 x i8]* @logBuff, i32 0, i32 0), i8 zeroext 1)
  br label %490

; <label>:490:                                    ; preds = %487, %483
  br label %494

; <label>:491:                                    ; preds = %458
  %492 = getelementptr inbounds [512 x i8], [512 x i8]* %6, i32 0, i32 0
  %493 = call i32 (i8*, i8*, ...) @sprintf(i8* getelementptr inbounds ([256 x i8], [256 x i8]* @logBuff, i32 0, i32 0), i8* getelementptr inbounds ([22 x i8], [22 x i8]* @.str.85, i32 0, i32 0), i8* %492) #10
  call void @_Z7logMessPch(i8* getelementptr inbounds ([256 x i8], [256 x i8]* @logBuff, i32 0, i32 0), i8 zeroext 1)
  br label %494

; <label>:494:                                    ; preds = %491, %490
  br label %498

; <label>:495:                                    ; preds = %454
  %496 = getelementptr inbounds [512 x i8], [512 x i8]* %5, i32 0, i32 0
  %497 = call i32 (i8*, i8*, ...) @sprintf(i8* getelementptr inbounds ([256 x i8], [256 x i8]* @logBuff, i32 0, i32 0), i8* getelementptr inbounds ([36 x i8], [36 x i8]* @.str.86, i32 0, i32 0), i8* %496) #10
  call void @_Z7logMessPch(i8* getelementptr inbounds ([256 x i8], [256 x i8]* @logBuff, i32 0, i32 0), i8 zeroext 1)
  br label %498

; <label>:498:                                    ; preds = %495, %494
  br label %499

; <label>:499:                                    ; preds = %498, %453
  br label %500

; <label>:500:                                    ; preds = %499, %440
  br label %501

; <label>:501:                                    ; preds = %500, %427
  br label %502

; <label>:502:                                    ; preds = %501, %414
  br label %503

; <label>:503:                                    ; preds = %502, %395
  br label %504

; <label>:504:                                    ; preds = %503, %376
  br label %505

; <label>:505:                                    ; preds = %504, %357
  br label %506

; <label>:506:                                    ; preds = %505, %307
  br label %302

; <label>:507:                                    ; preds = %302
  br label %508

; <label>:508:                                    ; preds = %507, %298
  %509 = call %struct._IO_FILE* @_Z11openSectionPKchPc(i8* getelementptr inbounds ([16 x i8], [16 x i8]* @.str.87, i32 0, i32 0), i8 zeroext 1, i8* getelementptr inbounds ([256 x i8], [256 x i8]* @iniFile, i32 0, i32 0))
  store %struct._IO_FILE* %509, %struct._IO_FILE** %7, align 8
  %510 = icmp ne %struct._IO_FILE* %509, null
  br i1 %510, label %511, label %571

; <label>:511:                                    ; preds = %508
  store i32 0, i32* %14, align 4
  br label %512

; <label>:512:                                    ; preds = %569, %511
  %513 = getelementptr inbounds [512 x i8], [512 x i8]* %4, i32 0, i32 0
  %514 = load %struct._IO_FILE*, %struct._IO_FILE** %7, align 8
  %515 = call i8* @_Z11readSectionPcP8_IO_FILE(i8* %513, %struct._IO_FILE* %514)
  %516 = icmp ne i8* %515, null
  br i1 %516, label %517, label %570

; <label>:517:                                    ; preds = %512
  %518 = load i32, i32* %14, align 4
  %519 = icmp slt i32 %518, 32
  br i1 %519, label %520, label %569

; <label>:520:                                    ; preds = %517
  store i32 0, i32* %15, align 4
  store i32 0, i32* %16, align 4
  %521 = getelementptr inbounds [512 x i8], [512 x i8]* %5, i32 0, i32 0
  %522 = getelementptr inbounds [512 x i8], [512 x i8]* %6, i32 0, i32 0
  %523 = getelementptr inbounds [512 x i8], [512 x i8]* %4, i32 0, i32 0
  call void @_Z7mySplitPcS_S_c(i8* %521, i8* %522, i8* %523, i8 signext 45)
  %524 = getelementptr inbounds [512 x i8], [512 x i8]* %5, i32 0, i32 0
  %525 = call i32 @_Z12my_inet_addrPc(i8* %524)
  %526 = call i32 @htonl(i32 %525) #13
  store i32 %526, i32* %15, align 4
  %527 = getelementptr inbounds [512 x i8], [512 x i8]* %6, i32 0, i32 0
  %528 = call i64 @strlen(i8* %527) #11
  %529 = icmp ne i64 %528, 0
  br i1 %529, label %530, label %534

; <label>:530:                                    ; preds = %520
  %531 = getelementptr inbounds [512 x i8], [512 x i8]* %6, i32 0, i32 0
  %532 = call i32 @_Z12my_inet_addrPc(i8* %531)
  %533 = call i32 @htonl(i32 %532) #13
  store i32 %533, i32* %16, align 4
  br label %536

; <label>:534:                                    ; preds = %520
  %535 = load i32, i32* %15, align 4
  store i32 %535, i32* %16, align 4
  br label %536

; <label>:536:                                    ; preds = %534, %530
  %537 = load i32, i32* %15, align 4
  %538 = icmp ne i32 %537, 0
  br i1 %538, label %539, label %565

; <label>:539:                                    ; preds = %536
  %540 = load i32, i32* %15, align 4
  %541 = icmp ne i32 %540, -1
  br i1 %541, label %542, label %565

; <label>:542:                                    ; preds = %539
  %543 = load i32, i32* %16, align 4
  %544 = icmp ne i32 %543, 0
  br i1 %544, label %545, label %565

; <label>:545:                                    ; preds = %542
  %546 = load i32, i32* %16, align 4
  %547 = icmp ne i32 %546, -1
  br i1 %547, label %548, label %565

; <label>:548:                                    ; preds = %545
  %549 = load i32, i32* %15, align 4
  %550 = load i32, i32* %16, align 4
  %551 = icmp ule i32 %549, %550
  br i1 %551, label %552, label %565

; <label>:552:                                    ; preds = %548
  %553 = load i32, i32* %15, align 4
  %554 = load i32, i32* %14, align 4
  %555 = sext i32 %554 to i64
  %556 = getelementptr inbounds [32 x %struct.data12], [32 x %struct.data12]* getelementptr inbounds (%struct.data2, %struct.data2* @cfig, i32 0, i32 0), i64 0, i64 %555
  %557 = getelementptr inbounds %struct.data12, %struct.data12* %556, i32 0, i32 0
  store i32 %553, i32* %557, align 8
  %558 = load i32, i32* %16, align 4
  %559 = load i32, i32* %14, align 4
  %560 = sext i32 %559 to i64
  %561 = getelementptr inbounds [32 x %struct.data12], [32 x %struct.data12]* getelementptr inbounds (%struct.data2, %struct.data2* @cfig, i32 0, i32 0), i64 0, i64 %560
  %562 = getelementptr inbounds %struct.data12, %struct.data12* %561, i32 0, i32 1
  store i32 %558, i32* %562, align 4
  %563 = load i32, i32* %14, align 4
  %564 = add nsw i32 %563, 1
  store i32 %564, i32* %14, align 4
  br label %568

; <label>:565:                                    ; preds = %548, %545, %542, %539, %536
  %566 = getelementptr inbounds [512 x i8], [512 x i8]* %4, i32 0, i32 0
  %567 = call i32 (i8*, i8*, ...) @sprintf(i8* getelementptr inbounds ([256 x i8], [256 x i8]* @logBuff, i32 0, i32 0), i8* getelementptr inbounds ([64 x i8], [64 x i8]* @.str.88, i32 0, i32 0), i8* %566) #10
  call void @_Z7logMessPch(i8* getelementptr inbounds ([256 x i8], [256 x i8]* @logBuff, i32 0, i32 0), i8 zeroext 1)
  br label %568

; <label>:568:                                    ; preds = %565, %552
  br label %569

; <label>:569:                                    ; preds = %568, %517
  br label %512

; <label>:570:                                    ; preds = %512
  br label %571

; <label>:571:                                    ; preds = %570, %508
  %572 = load i8, i8* getelementptr inbounds (%struct.data2, %struct.data2* @cfig, i32 0, i32 3, i64 0), align 8
  %573 = icmp ne i8 %572, 0
  br i1 %573, label %597, label %574

; <label>:574:                                    ; preds = %571
  %575 = call i32 @getuid() #10
  %576 = call %struct.passwd* @getpwuid(i32 %575)
  store %struct.passwd* %576, %struct.passwd** %17, align 8
  %577 = load %struct.passwd*, %struct.passwd** %17, align 8
  %578 = getelementptr inbounds %struct.passwd, %struct.passwd* %577, i32 0, i32 0
  %579 = load i8*, i8** %578, align 8
  %580 = call i8* @strcpy(i8* getelementptr inbounds (%struct.data2, %struct.data2* @cfig, i32 0, i32 3, i32 0), i8* %579) #10
  %581 = load i8, i8* getelementptr inbounds (%struct.data2, %struct.data2* @cfig, i32 0, i32 1, i64 0, i32 1, i64 0), align 8
  %582 = icmp ne i8 %581, 0
  br i1 %582, label %596, label %583

; <label>:583:                                    ; preds = %574
  %584 = load %struct.passwd*, %struct.passwd** %17, align 8
  %585 = getelementptr inbounds %struct.passwd, %struct.passwd* %584, i32 0, i32 2
  %586 = load i32, i32* %585, align 8
  %587 = icmp ne i32 %586, 0
  br i1 %587, label %588, label %593

; <label>:588:                                    ; preds = %583
  %589 = load %struct.passwd*, %struct.passwd** %17, align 8
  %590 = getelementptr inbounds %struct.passwd, %struct.passwd* %589, i32 0, i32 5
  %591 = load i8*, i8** %590, align 8
  %592 = call i8* @strcpy(i8* getelementptr inbounds (%struct.data2, %struct.data2* @cfig, i32 0, i32 1, i64 0, i32 1, i32 0), i8* %591) #10
  br label %595

; <label>:593:                                    ; preds = %583
  %594 = call i8* @strcpy(i8* getelementptr inbounds (%struct.data2, %struct.data2* @cfig, i32 0, i32 1, i64 0, i32 1, i32 0), i8* getelementptr inbounds ([7 x i8], [7 x i8]* @.str.76, i32 0, i32 0)) #10
  br label %595

; <label>:595:                                    ; preds = %593, %588
  br label %596

; <label>:596:                                    ; preds = %595, %574
  br label %597

; <label>:597:                                    ; preds = %596, %571
  %598 = call i32 (i8*, i8*, ...) @sprintf(i8* getelementptr inbounds ([256 x i8], [256 x i8]* @logBuff, i32 0, i32 0), i8* getelementptr inbounds ([13 x i8], [13 x i8]* @.str.89, i32 0, i32 0), i8* getelementptr inbounds (%struct.data2, %struct.data2* @cfig, i32 0, i32 3, i32 0)) #10
  call void @_Z7logMessPch(i8* getelementptr inbounds ([256 x i8], [256 x i8]* @logBuff, i32 0, i32 0), i8 zeroext 1)
  store i32 0, i32* %18, align 4
  br label %599

; <label>:599:                                    ; preds = %623, %597
  %600 = load i32, i32* %18, align 4
  %601 = icmp slt i32 %600, 8
  br i1 %601, label %602, label %626

; <label>:602:                                    ; preds = %599
  %603 = load i32, i32* %18, align 4
  %604 = sext i32 %603 to i64
  %605 = getelementptr inbounds [8 x %struct.home], [8 x %struct.home]* getelementptr inbounds (%struct.data2, %struct.data2* @cfig, i32 0, i32 1), i64 0, i64 %604
  %606 = getelementptr inbounds %struct.home, %struct.home* %605, i32 0, i32 1
  %607 = getelementptr inbounds [256 x i8], [256 x i8]* %606, i64 0, i64 0
  %608 = load i8, i8* %607, align 8
  %609 = icmp ne i8 %608, 0
  br i1 %609, label %610, label %622

; <label>:610:                                    ; preds = %602
  %611 = load i32, i32* %18, align 4
  %612 = sext i32 %611 to i64
  %613 = getelementptr inbounds [8 x %struct.home], [8 x %struct.home]* getelementptr inbounds (%struct.data2, %struct.data2* @cfig, i32 0, i32 1), i64 0, i64 %612
  %614 = getelementptr inbounds %struct.home, %struct.home* %613, i32 0, i32 0
  %615 = getelementptr inbounds [64 x i8], [64 x i8]* %614, i32 0, i32 0
  %616 = load i32, i32* %18, align 4
  %617 = sext i32 %616 to i64
  %618 = getelementptr inbounds [8 x %struct.home], [8 x %struct.home]* getelementptr inbounds (%struct.data2, %struct.data2* @cfig, i32 0, i32 1), i64 0, i64 %617
  %619 = getelementptr inbounds %struct.home, %struct.home* %618, i32 0, i32 1
  %620 = getelementptr inbounds [256 x i8], [256 x i8]* %619, i32 0, i32 0
  %621 = call i32 (i8*, i8*, ...) @sprintf(i8* getelementptr inbounds ([256 x i8], [256 x i8]* @logBuff, i32 0, i32 0), i8* getelementptr inbounds ([26 x i8], [26 x i8]* @.str.90, i32 0, i32 0), i8* %615, i8* %620) #10
  call void @_Z7logMessPch(i8* getelementptr inbounds ([256 x i8], [256 x i8]* @logBuff, i32 0, i32 0), i8 zeroext 1)
  br label %622

; <label>:622:                                    ; preds = %610, %602
  br label %623

; <label>:623:                                    ; preds = %622
  %624 = load i32, i32* %18, align 4
  %625 = add nsw i32 %624, 1
  store i32 %625, i32* %18, align 4
  br label %599

; <label>:626:                                    ; preds = %599
  %627 = load i32, i32* getelementptr inbounds (%struct.data2, %struct.data2* @cfig, i32 0, i32 0, i64 0, i32 0), align 8
  %628 = icmp ne i32 %627, 0
  br i1 %628, label %629, label %671

; <label>:629:                                    ; preds = %626
  store i16 0, i16* %20, align 2
  br label %630

; <label>:630:                                    ; preds = %667, %629
  %631 = load i16, i16* %20, align 2
  %632 = zext i16 %631 to i64
  %633 = icmp ule i64 %632, 256
  br i1 %633, label %634, label %641

; <label>:634:                                    ; preds = %630
  %635 = load i16, i16* %20, align 2
  %636 = zext i16 %635 to i64
  %637 = getelementptr inbounds [32 x %struct.data12], [32 x %struct.data12]* getelementptr inbounds (%struct.data2, %struct.data2* @cfig, i32 0, i32 0), i64 0, i64 %636
  %638 = getelementptr inbounds %struct.data12, %struct.data12* %637, i32 0, i32 0
  %639 = load i32, i32* %638, align 8
  %640 = icmp ne i32 %639, 0
  br label %641

; <label>:641:                                    ; preds = %634, %630
  %642 = phi i1 [ false, %630 ], [ %640, %634 ]
  br i1 %642, label %643, label %670

; <label>:643:                                    ; preds = %641
  %644 = call i32 (i8*, i8*, ...) @sprintf(i8* getelementptr inbounds ([256 x i8], [256 x i8]* @logBuff, i32 0, i32 0), i8* getelementptr inbounds ([3 x i8], [3 x i8]* @.str.55, i32 0, i32 0), i8* getelementptr inbounds ([20 x i8], [20 x i8]* @.str.91, i32 0, i32 0)) #10
  %645 = getelementptr inbounds [128 x i8], [128 x i8]* %19, i32 0, i32 0
  %646 = load i16, i16* %20, align 2
  %647 = zext i16 %646 to i64
  %648 = getelementptr inbounds [32 x %struct.data12], [32 x %struct.data12]* getelementptr inbounds (%struct.data2, %struct.data2* @cfig, i32 0, i32 0), i64 0, i64 %647
  %649 = getelementptr inbounds %struct.data12, %struct.data12* %648, i32 0, i32 0
  %650 = load i32, i32* %649, align 8
  %651 = call i32 @htonl(i32 %650) #13
  %652 = call i8* @_Z9IP2StringPcj(i8* getelementptr inbounds ([256 x i8], [256 x i8]* @tempbuff, i32 0, i32 0), i32 %651)
  %653 = call i32 (i8*, i8*, ...) @sprintf(i8* %645, i8* getelementptr inbounds ([4 x i8], [4 x i8]* @.str.92, i32 0, i32 0), i8* %652) #10
  %654 = getelementptr inbounds [128 x i8], [128 x i8]* %19, i32 0, i32 0
  %655 = call i8* @strcat(i8* getelementptr inbounds ([256 x i8], [256 x i8]* @logBuff, i32 0, i32 0), i8* %654) #10
  %656 = getelementptr inbounds [128 x i8], [128 x i8]* %19, i32 0, i32 0
  %657 = load i16, i16* %20, align 2
  %658 = zext i16 %657 to i64
  %659 = getelementptr inbounds [32 x %struct.data12], [32 x %struct.data12]* getelementptr inbounds (%struct.data2, %struct.data2* @cfig, i32 0, i32 0), i64 0, i64 %658
  %660 = getelementptr inbounds %struct.data12, %struct.data12* %659, i32 0, i32 1
  %661 = load i32, i32* %660, align 4
  %662 = call i32 @htonl(i32 %661) #13
  %663 = call i8* @_Z9IP2StringPcj(i8* getelementptr inbounds ([256 x i8], [256 x i8]* @tempbuff, i32 0, i32 0), i32 %662)
  %664 = call i32 (i8*, i8*, ...) @sprintf(i8* %656, i8* getelementptr inbounds ([3 x i8], [3 x i8]* @.str.55, i32 0, i32 0), i8* %663) #10
  %665 = getelementptr inbounds [128 x i8], [128 x i8]* %19, i32 0, i32 0
  %666 = call i8* @strcat(i8* getelementptr inbounds ([256 x i8], [256 x i8]* @logBuff, i32 0, i32 0), i8* %665) #10
  call void @_Z7logMessPch(i8* getelementptr inbounds ([256 x i8], [256 x i8]* @logBuff, i32 0, i32 0), i8 zeroext 1)
  br label %667

; <label>:667:                                    ; preds = %643
  %668 = load i16, i16* %20, align 2
  %669 = add i16 %668, 1
  store i16 %669, i16* %20, align 2
  br label %630

; <label>:670:                                    ; preds = %641
  br label %673

; <label>:671:                                    ; preds = %626
  %672 = call i32 (i8*, i8*, ...) @sprintf(i8* getelementptr inbounds ([256 x i8], [256 x i8]* @logBuff, i32 0, i32 0), i8* getelementptr inbounds ([3 x i8], [3 x i8]* @.str.55, i32 0, i32 0), i8* getelementptr inbounds ([23 x i8], [23 x i8]* @.str.93, i32 0, i32 0)) #10
  call void @_Z7logMessPch(i8* getelementptr inbounds ([256 x i8], [256 x i8]* @logBuff, i32 0, i32 0), i8 zeroext 1)
  br label %673

; <label>:673:                                    ; preds = %671, %670
  %674 = load i32, i32* getelementptr inbounds (%struct.data2, %struct.data2* @cfig, i32 0, i32 9), align 4
  %675 = icmp ne i32 %674, 0
  br i1 %675, label %676, label %680

; <label>:676:                                    ; preds = %673
  %677 = load i32, i32* getelementptr inbounds (%struct.data2, %struct.data2* @cfig, i32 0, i32 9), align 4
  %678 = load i32, i32* getelementptr inbounds (%struct.data2, %struct.data2* @cfig, i32 0, i32 10), align 8
  %679 = call i32 (i8*, i8*, ...) @sprintf(i8* getelementptr inbounds ([256 x i8], [256 x i8]* @logBuff, i32 0, i32 0), i8* getelementptr inbounds ([25 x i8], [25 x i8]* @.str.94, i32 0, i32 0), i32 %677, i32 %678) #10
  call void @_Z7logMessPch(i8* getelementptr inbounds ([256 x i8], [256 x i8]* @logBuff, i32 0, i32 0), i8 zeroext 1)
  br label %682

; <label>:680:                                    ; preds = %673
  %681 = call i32 (i8*, i8*, ...) @sprintf(i8* getelementptr inbounds ([256 x i8], [256 x i8]* @logBuff, i32 0, i32 0), i8* getelementptr inbounds ([23 x i8], [23 x i8]* @.str.95, i32 0, i32 0)) #10
  call void @_Z7logMessPch(i8* getelementptr inbounds ([256 x i8], [256 x i8]* @logBuff, i32 0, i32 0), i8 zeroext 1)
  br label %682

; <label>:682:                                    ; preds = %680, %676
  %683 = load i32, i32* @blksize, align 4
  %684 = call i32 (i8*, i8*, ...) @sprintf(i8* getelementptr inbounds ([256 x i8], [256 x i8]* @logBuff, i32 0, i32 0), i8* getelementptr inbounds ([16 x i8], [16 x i8]* @.str.96, i32 0, i32 0), i32 %683) #10
  call void @_Z7logMessPch(i8* getelementptr inbounds ([256 x i8], [256 x i8]* @logBuff, i32 0, i32 0), i8 zeroext 1)
  %685 = call i32 (i8*, i8*, ...) @sprintf(i8* getelementptr inbounds ([256 x i8], [256 x i8]* @logBuff, i32 0, i32 0), i8* getelementptr inbounds ([20 x i8], [20 x i8]* @.str.97, i32 0, i32 0), i32 512) #10
  call void @_Z7logMessPch(i8* getelementptr inbounds ([256 x i8], [256 x i8]* @logBuff, i32 0, i32 0), i8 zeroext 1)
  %686 = load i16, i16* @timeout, align 2
  %687 = zext i16 %686 to i32
  %688 = call i32 (i8*, i8*, ...) @sprintf(i8* getelementptr inbounds ([256 x i8], [256 x i8]* @logBuff, i32 0, i32 0), i8* getelementptr inbounds ([20 x i8], [20 x i8]* @.str.98, i32 0, i32 0), i32 %687) #10
  call void @_Z7logMessPch(i8* getelementptr inbounds ([256 x i8], [256 x i8]* @logBuff, i32 0, i32 0), i8 zeroext 1)
  %689 = load i8, i8* getelementptr inbounds (%struct.data2, %struct.data2* @cfig, i32 0, i32 6), align 8
  %690 = icmp ne i8 %689, 0
  %691 = zext i1 %690 to i64
  %692 = select i1 %690, i8* getelementptr inbounds ([4 x i8], [4 x i8]* @.str.100, i32 0, i32 0), i8* getelementptr inbounds ([3 x i8], [3 x i8]* @.str.101, i32 0, i32 0)
  %693 = call i32 (i8*, i8*, ...) @sprintf(i8* getelementptr inbounds ([256 x i8], [256 x i8]* @logBuff, i32 0, i32 0), i8* getelementptr inbounds ([22 x i8], [22 x i8]* @.str.99, i32 0, i32 0), i8* %692) #10
  call void @_Z7logMessPch(i8* getelementptr inbounds ([256 x i8], [256 x i8]* @logBuff, i32 0, i32 0), i8 zeroext 1)
  %694 = load i8, i8* getelementptr inbounds (%struct.data2, %struct.data2* @cfig, i32 0, i32 7), align 1
  %695 = icmp ne i8 %694, 0
  %696 = zext i1 %695 to i64
  %697 = select i1 %695, i8* getelementptr inbounds ([4 x i8], [4 x i8]* @.str.100, i32 0, i32 0), i8* getelementptr inbounds ([3 x i8], [3 x i8]* @.str.101, i32 0, i32 0)
  %698 = call i32 (i8*, i8*, ...) @sprintf(i8* getelementptr inbounds ([256 x i8], [256 x i8]* @logBuff, i32 0, i32 0), i8* getelementptr inbounds ([24 x i8], [24 x i8]* @.str.102, i32 0, i32 0), i8* %697) #10
  call void @_Z7logMessPch(i8* getelementptr inbounds ([256 x i8], [256 x i8]* @logBuff, i32 0, i32 0), i8 zeroext 1)
  %699 = load i8, i8* getelementptr inbounds (%struct.data2, %struct.data2* @cfig, i32 0, i32 8), align 2
  %700 = icmp ne i8 %699, 0
  %701 = zext i1 %700 to i64
  %702 = select i1 %700, i8* getelementptr inbounds ([4 x i8], [4 x i8]* @.str.100, i32 0, i32 0), i8* getelementptr inbounds ([3 x i8], [3 x i8]* @.str.101, i32 0, i32 0)
  %703 = call i32 (i8*, i8*, ...) @sprintf(i8* getelementptr inbounds ([256 x i8], [256 x i8]* @logBuff, i32 0, i32 0), i8* getelementptr inbounds ([27 x i8], [27 x i8]* @.str.103, i32 0, i32 0), i8* %702) #10
  call void @_Z7logMessPch(i8* getelementptr inbounds ([256 x i8], [256 x i8]* @logBuff, i32 0, i32 0), i8 zeroext 1)
  %704 = load i8, i8* @verbatim, align 1
  %705 = trunc i8 %704 to i1
  br i1 %705, label %713, label %706

; <label>:706:                                    ; preds = %682
  %707 = load i8, i8* getelementptr inbounds (%struct.data2, %struct.data2* @cfig, i32 0, i32 12), align 8
  %708 = zext i8 %707 to i32
  %709 = icmp sgt i32 %708, 1
  %710 = zext i1 %709 to i64
  %711 = select i1 %709, i8* getelementptr inbounds ([4 x i8], [4 x i8]* @.str.105, i32 0, i32 0), i8* getelementptr inbounds ([7 x i8], [7 x i8]* @.str.106, i32 0, i32 0)
  %712 = call i32 (i8*, i8*, ...) @sprintf(i8* getelementptr inbounds ([256 x i8], [256 x i8]* @logBuff, i32 0, i32 0), i8* getelementptr inbounds ([12 x i8], [12 x i8]* @.str.104, i32 0, i32 0), i8* %711) #10
  call void @_Z7logMessPch(i8* getelementptr inbounds ([256 x i8], [256 x i8]* @logBuff, i32 0, i32 0), i8 zeroext 1)
  br label %713

; <label>:713:                                    ; preds = %706, %682
  %714 = call i32 @pthread_mutex_lock(%union.pthread_mutex_t* @mutThread) #10
  %715 = load i16, i16* @minThreads, align 2
  %716 = icmp ne i16 %715, 0
  br i1 %716, label %717, label %744

; <label>:717:                                    ; preds = %713
  store i32 0, i32* %21, align 4
  store i32 0, i32* %22, align 4
  br label %718

; <label>:718:                                    ; preds = %738, %717
  %719 = load i32, i32* %22, align 4
  %720 = load i16, i16* @minThreads, align 2
  %721 = zext i16 %720 to i32
  %722 = icmp slt i32 %719, %721
  br i1 %722, label %723, label %741

; <label>:723:                                    ; preds = %718
  %724 = call i32 @pthread_attr_init(%union.pthread_attr_t* %23) #10
  %725 = call i32 @pthread_attr_setdetachstate(%union.pthread_attr_t* %23, i32 1) #10
  %726 = call i32 @pthread_create(i64* @threadId, %union.pthread_attr_t* %23, i8* (i8*)* @_Z14processRequestPv, i8* null) #10
  store i32 %726, i32* %24, align 4
  %727 = call i32 @pthread_attr_destroy(%union.pthread_attr_t* %23) #10
  %728 = load i32, i32* %24, align 4
  %729 = icmp ne i32 %728, 0
  br i1 %729, label %730, label %734

; <label>:730:                                    ; preds = %723
  %731 = load i32, i32* %22, align 4
  %732 = load i32, i32* %24, align 4
  %733 = call i32 (i8*, i8*, ...) @sprintf(i8* getelementptr inbounds ([256 x i8], [256 x i8]* @logBuff, i32 0, i32 0), i8* getelementptr inbounds ([49 x i8], [49 x i8]* @.str.107, i32 0, i32 0), i32 %731, i32 %732) #10
  call void @_Z7logMessPch(i8* getelementptr inbounds ([256 x i8], [256 x i8]* @logBuff, i32 0, i32 0), i8 zeroext 1)
  br label %737

; <label>:734:                                    ; preds = %723
  %735 = load i32, i32* %21, align 4
  %736 = add nsw i32 %735, 1
  store i32 %736, i32* %21, align 4
  br label %737

; <label>:737:                                    ; preds = %734, %730
  br label %738

; <label>:738:                                    ; preds = %737
  %739 = load i32, i32* %22, align 4
  %740 = add nsw i32 %739, 1
  store i32 %740, i32* %22, align 4
  br label %718

; <label>:741:                                    ; preds = %718
  %742 = load i32, i32* %21, align 4
  %743 = call i32 (i8*, i8*, ...) @sprintf(i8* getelementptr inbounds ([256 x i8], [256 x i8]* @logBuff, i32 0, i32 0), i8* getelementptr inbounds ([21 x i8], [21 x i8]* @.str.108, i32 0, i32 0), i32 %742) #10
  call void @_Z7logMessPch(i8* getelementptr inbounds ([256 x i8], [256 x i8]* @logBuff, i32 0, i32 0), i8 zeroext 1)
  br label %744

; <label>:744:                                    ; preds = %741, %713
  %745 = call i32 @socket(i32 2, i32 2, i32 0) #10
  store i32 %745, i32* getelementptr inbounds (%struct.data2, %struct.data2* @cfig, i32 0, i32 17), align 4
  %746 = load i32, i32* getelementptr inbounds (%struct.data2, %struct.data2* @cfig, i32 0, i32 17), align 4
  %747 = icmp slt i32 %746, 0
  br i1 %747, label %748, label %750

; <label>:748:                                    ; preds = %744
  %749 = call i32 (i8*, i8*, ...) @sprintf(i8* getelementptr inbounds ([256 x i8], [256 x i8]* @logBuff, i32 0, i32 0), i8* getelementptr inbounds ([24 x i8], [24 x i8]* @.str.109, i32 0, i32 0)) #10
  call void @_Z7logMessPch(i8* getelementptr inbounds ([256 x i8], [256 x i8]* @logBuff, i32 0, i32 0), i8 zeroext 1)
  call void @exit(i32 1) #12
  unreachable

; <label>:750:                                    ; preds = %744
  br label %751

; <label>:751:                                    ; preds = %1141, %750
  store i8 0, i8* %25, align 1
  %752 = load i8, i8* getelementptr inbounds (%struct.data2, %struct.data2* @cfig, i32 0, i32 19), align 8
  %753 = trunc i8 %752 to i1
  br i1 %753, label %813, label %754

; <label>:754:                                    ; preds = %751
  %755 = call %struct._IO_FILE* @_Z11openSectionPKchPc(i8* getelementptr inbounds ([10 x i8], [10 x i8]* @.str.110, i32 0, i32 0), i8 zeroext 1, i8* getelementptr inbounds ([256 x i8], [256 x i8]* @iniFile, i32 0, i32 0))
  store %struct._IO_FILE* %755, %struct._IO_FILE** %7, align 8
  %756 = icmp ne %struct._IO_FILE* %755, null
  br i1 %756, label %757, label %813

; <label>:757:                                    ; preds = %754
  store i8 0, i8* %26, align 1
  br label %758

; <label>:758:                                    ; preds = %811, %757
  %759 = getelementptr inbounds [512 x i8], [512 x i8]* %4, i32 0, i32 0
  %760 = load %struct._IO_FILE*, %struct._IO_FILE** %7, align 8
  %761 = call i8* @_Z11readSectionPcP8_IO_FILE(i8* %759, %struct._IO_FILE* %760)
  %762 = icmp ne i8* %761, null
  br i1 %762, label %763, label %812

; <label>:763:                                    ; preds = %758
  store i16 69, i16* %27, align 2
  store i8 1, i8* getelementptr inbounds (%struct.data2, %struct.data2* @cfig, i32 0, i32 19), align 8
  %764 = getelementptr inbounds [512 x i8], [512 x i8]* %5, i32 0, i32 0
  %765 = getelementptr inbounds [512 x i8], [512 x i8]* %6, i32 0, i32 0
  %766 = getelementptr inbounds [512 x i8], [512 x i8]* %4, i32 0, i32 0
  call void @_Z7mySplitPcS_S_c(i8* %764, i8* %765, i8* %766, i8 signext 58)
  %767 = getelementptr inbounds [512 x i8], [512 x i8]* %6, i64 0, i64 0
  %768 = load i8, i8* %767, align 16
  %769 = icmp ne i8 %768, 0
  br i1 %769, label %770, label %774

; <label>:770:                                    ; preds = %763
  %771 = getelementptr inbounds [512 x i8], [512 x i8]* %6, i32 0, i32 0
  %772 = call i32 @atoi(i8* %771) #11
  %773 = trunc i32 %772 to i16
  store i16 %773, i16* %27, align 2
  br label %774

; <label>:774:                                    ; preds = %770, %763
  %775 = load i8, i8* %26, align 1
  %776 = zext i8 %775 to i32
  %777 = icmp slt i32 %776, 8
  br i1 %777, label %778, label %811

; <label>:778:                                    ; preds = %774
  %779 = getelementptr inbounds [512 x i8], [512 x i8]* %5, i32 0, i32 0
  %780 = call zeroext i1 @_Z4isIPPc(i8* %779)
  br i1 %780, label %781, label %807

; <label>:781:                                    ; preds = %778
  %782 = getelementptr inbounds [512 x i8], [512 x i8]* %5, i32 0, i32 0
  %783 = call i32 @_Z12my_inet_addrPc(i8* %782)
  store i32 %783, i32* %28, align 4
  %784 = load i32, i32* %28, align 4
  %785 = icmp ne i32 %784, 0
  br i1 %785, label %790, label %786

; <label>:786:                                    ; preds = %781
  store i32 0, i32* getelementptr inbounds (%struct.data1, %struct.data1* @newNetwork, i32 0, i32 3, i64 0), align 4
  %787 = load i16, i16* %27, align 2
  store i16 %787, i16* getelementptr inbounds (%struct.data1, %struct.data1* @newNetwork, i32 0, i32 4, i64 0), align 4
  %788 = load %struct._IO_FILE*, %struct._IO_FILE** %7, align 8
  %789 = call i32 @fclose(%struct._IO_FILE* %788)
  br label %812

; <label>:790:                                    ; preds = %781
  %791 = load i32, i32* %28, align 4
  %792 = call i32* @_Z10findServerPjj(i32* getelementptr inbounds (%struct.data1, %struct.data1* @newNetwork, i32 0, i32 3, i32 0), i32 %791)
  %793 = icmp ne i32* %792, null
  br i1 %793, label %805, label %794

; <label>:794:                                    ; preds = %790
  %795 = load i32, i32* %28, align 4
  %796 = load i8, i8* %26, align 1
  %797 = zext i8 %796 to i64
  %798 = getelementptr inbounds [8 x i32], [8 x i32]* getelementptr inbounds (%struct.data1, %struct.data1* @newNetwork, i32 0, i32 3), i64 0, i64 %797
  store i32 %795, i32* %798, align 4
  %799 = load i16, i16* %27, align 2
  %800 = load i8, i8* %26, align 1
  %801 = zext i8 %800 to i64
  %802 = getelementptr inbounds [8 x i16], [8 x i16]* getelementptr inbounds (%struct.data1, %struct.data1* @newNetwork, i32 0, i32 4), i64 0, i64 %801
  store i16 %799, i16* %802, align 2
  %803 = load i8, i8* %26, align 1
  %804 = add i8 %803, 1
  store i8 %804, i8* %26, align 1
  br label %805

; <label>:805:                                    ; preds = %794, %790
  br label %806

; <label>:806:                                    ; preds = %805
  br label %810

; <label>:807:                                    ; preds = %778
  %808 = getelementptr inbounds [512 x i8], [512 x i8]* %4, i32 0, i32 0
  %809 = call i32 (i8*, i8*, ...) @sprintf(i8* getelementptr inbounds ([256 x i8], [256 x i8]* @logBuff, i32 0, i32 0), i8* getelementptr inbounds ([68 x i8], [68 x i8]* @.str.111, i32 0, i32 0), i8* %808) #10
  call void @_Z7logMessPch(i8* getelementptr inbounds ([256 x i8], [256 x i8]* @logBuff, i32 0, i32 0), i8 zeroext 1)
  br label %810

; <label>:810:                                    ; preds = %807, %806
  br label %811

; <label>:811:                                    ; preds = %810, %774
  br label %758

; <label>:812:                                    ; preds = %786, %758
  br label %813

; <label>:813:                                    ; preds = %812, %754, %751
  %814 = load i8, i8* getelementptr inbounds (%struct.data2, %struct.data2* @cfig, i32 0, i32 19), align 8
  %815 = trunc i8 %814 to i1
  br i1 %815, label %844, label %816

; <label>:816:                                    ; preds = %813
  call void @_Z13getInterfacesP5data1(%struct.data1* @newNetwork)
  call void @llvm.memcpy.p0i8.p0i8.i64(i8* bitcast (i32* getelementptr inbounds (%struct.data2, %struct.data2* @cfig, i32 0, i32 18, i32 0) to i8*), i8* bitcast (i32* getelementptr inbounds (%struct.data1, %struct.data1* @newNetwork, i32 0, i32 2, i32 0) to i8*), i64 32, i32 4, i1 false)
  store i8 0, i8* %29, align 1
  br label %817

; <label>:817:                                    ; preds = %840, %816
  %818 = load i8, i8* %29, align 1
  %819 = zext i8 %818 to i32
  %820 = icmp slt i32 %819, 8
  br i1 %820, label %821, label %827

; <label>:821:                                    ; preds = %817
  %822 = load i8, i8* %29, align 1
  %823 = zext i8 %822 to i64
  %824 = getelementptr inbounds [8 x i32], [8 x i32]* getelementptr inbounds (%struct.data1, %struct.data1* @newNetwork, i32 0, i32 2), i64 0, i64 %823
  %825 = load i32, i32* %824, align 4
  %826 = icmp ne i32 %825, 0
  br label %827

; <label>:827:                                    ; preds = %821, %817
  %828 = phi i1 [ false, %817 ], [ %826, %821 ]
  br i1 %828, label %829, label %843

; <label>:829:                                    ; preds = %827
  %830 = load i8, i8* %29, align 1
  %831 = zext i8 %830 to i64
  %832 = getelementptr inbounds [8 x i32], [8 x i32]* getelementptr inbounds (%struct.data1, %struct.data1* @newNetwork, i32 0, i32 2), i64 0, i64 %831
  %833 = load i32, i32* %832, align 4
  %834 = load i8, i8* %29, align 1
  %835 = zext i8 %834 to i64
  %836 = getelementptr inbounds [8 x i32], [8 x i32]* getelementptr inbounds (%struct.data1, %struct.data1* @newNetwork, i32 0, i32 3), i64 0, i64 %835
  store i32 %833, i32* %836, align 4
  %837 = load i8, i8* %29, align 1
  %838 = zext i8 %837 to i64
  %839 = getelementptr inbounds [8 x i16], [8 x i16]* getelementptr inbounds (%struct.data1, %struct.data1* @newNetwork, i32 0, i32 4), i64 0, i64 %838
  store i16 69, i16* %839, align 2
  br label %840

; <label>:840:                                    ; preds = %829
  %841 = load i8, i8* %29, align 1
  %842 = add i8 %841, 1
  store i8 %842, i8* %29, align 1
  br label %817

; <label>:843:                                    ; preds = %827
  br label %844

; <label>:844:                                    ; preds = %843, %813
  store i8 0, i8* %30, align 1
  store i32 0, i32* %31, align 4
  br label %845

; <label>:845:                                    ; preds = %1093, %844
  %846 = load i32, i32* %31, align 4
  %847 = icmp slt i32 %846, 8
  br i1 %847, label %848, label %854

; <label>:848:                                    ; preds = %845
  %849 = load i32, i32* %31, align 4
  %850 = sext i32 %849 to i64
  %851 = getelementptr inbounds [8 x i16], [8 x i16]* getelementptr inbounds (%struct.data1, %struct.data1* @newNetwork, i32 0, i32 4), i64 0, i64 %850
  %852 = load i16, i16* %851, align 2
  %853 = icmp ne i16 %852, 0
  br label %854

; <label>:854:                                    ; preds = %848, %845
  %855 = phi i1 [ false, %845 ], [ %853, %848 ]
  br i1 %855, label %856, label %1096

; <label>:856:                                    ; preds = %854
  store i32 0, i32* %32, align 4
  br label %857

; <label>:857:                                    ; preds = %902, %856
  %858 = load i32, i32* %32, align 4
  %859 = icmp slt i32 %858, 8
  br i1 %859, label %860, label %867

; <label>:860:                                    ; preds = %857
  %861 = load i32, i32* %32, align 4
  %862 = sext i32 %861 to i64
  %863 = getelementptr inbounds [8 x %struct.tftpConnType], [8 x %struct.tftpConnType]* getelementptr inbounds (%struct.data1, %struct.data1* @network, i32 0, i32 0), i64 0, i64 %862
  %864 = getelementptr inbounds %struct.tftpConnType, %struct.tftpConnType* %863, i32 0, i32 4
  %865 = load i8, i8* %864, align 2
  %866 = trunc i8 %865 to i1
  br label %867

; <label>:867:                                    ; preds = %860, %857
  %868 = phi i1 [ false, %857 ], [ %866, %860 ]
  br i1 %868, label %869, label %905

; <label>:869:                                    ; preds = %867
  %870 = load i32, i32* %32, align 4
  %871 = sext i32 %870 to i64
  %872 = getelementptr inbounds [8 x %struct.tftpConnType], [8 x %struct.tftpConnType]* getelementptr inbounds (%struct.data1, %struct.data1* @network, i32 0, i32 0), i64 0, i64 %871
  %873 = getelementptr inbounds %struct.tftpConnType, %struct.tftpConnType* %872, i32 0, i32 5
  %874 = load i8, i8* %873, align 1
  %875 = trunc i8 %874 to i1
  br i1 %875, label %876, label %901

; <label>:876:                                    ; preds = %869
  %877 = load i32, i32* %32, align 4
  %878 = sext i32 %877 to i64
  %879 = getelementptr inbounds [8 x %struct.tftpConnType], [8 x %struct.tftpConnType]* getelementptr inbounds (%struct.data1, %struct.data1* @network, i32 0, i32 0), i64 0, i64 %878
  %880 = getelementptr inbounds %struct.tftpConnType, %struct.tftpConnType* %879, i32 0, i32 2
  %881 = load i32, i32* %880, align 4
  %882 = load i32, i32* %31, align 4
  %883 = sext i32 %882 to i64
  %884 = getelementptr inbounds [8 x i32], [8 x i32]* getelementptr inbounds (%struct.data1, %struct.data1* @newNetwork, i32 0, i32 3), i64 0, i64 %883
  %885 = load i32, i32* %884, align 4
  %886 = icmp eq i32 %881, %885
  br i1 %886, label %887, label %901

; <label>:887:                                    ; preds = %876
  %888 = load i32, i32* %32, align 4
  %889 = sext i32 %888 to i64
  %890 = getelementptr inbounds [8 x %struct.tftpConnType], [8 x %struct.tftpConnType]* getelementptr inbounds (%struct.data1, %struct.data1* @network, i32 0, i32 0), i64 0, i64 %889
  %891 = getelementptr inbounds %struct.tftpConnType, %struct.tftpConnType* %890, i32 0, i32 3
  %892 = load i16, i16* %891, align 4
  %893 = zext i16 %892 to i32
  %894 = load i32, i32* %31, align 4
  %895 = sext i32 %894 to i64
  %896 = getelementptr inbounds [8 x i16], [8 x i16]* getelementptr inbounds (%struct.data1, %struct.data1* @newNetwork, i32 0, i32 4), i64 0, i64 %895
  %897 = load i16, i16* %896, align 2
  %898 = zext i16 %897 to i32
  %899 = icmp eq i32 %893, %898
  br i1 %899, label %900, label %901

; <label>:900:                                    ; preds = %887
  br label %905

; <label>:901:                                    ; preds = %887, %876, %869
  br label %902

; <label>:902:                                    ; preds = %901
  %903 = load i32, i32* %32, align 4
  %904 = add nsw i32 %903, 1
  store i32 %904, i32* %32, align 4
  br label %857

; <label>:905:                                    ; preds = %900, %867
  %906 = load i32, i32* %32, align 4
  %907 = sext i32 %906 to i64
  %908 = getelementptr inbounds [8 x %struct.tftpConnType], [8 x %struct.tftpConnType]* getelementptr inbounds (%struct.data1, %struct.data1* @network, i32 0, i32 0), i64 0, i64 %907
  %909 = getelementptr inbounds %struct.tftpConnType, %struct.tftpConnType* %908, i32 0, i32 5
  %910 = load i8, i8* %909, align 1
  %911 = trunc i8 %910 to i1
  br i1 %911, label %912, label %965

; <label>:912:                                    ; preds = %905
  %913 = load i32, i32* %32, align 4
  %914 = sext i32 %913 to i64
  %915 = getelementptr inbounds [8 x %struct.tftpConnType], [8 x %struct.tftpConnType]* getelementptr inbounds (%struct.data1, %struct.data1* @network, i32 0, i32 0), i64 0, i64 %914
  %916 = getelementptr inbounds %struct.tftpConnType, %struct.tftpConnType* %915, i32 0, i32 2
  %917 = load i32, i32* %916, align 4
  %918 = load i32, i32* %31, align 4
  %919 = sext i32 %918 to i64
  %920 = getelementptr inbounds [8 x i32], [8 x i32]* getelementptr inbounds (%struct.data1, %struct.data1* @newNetwork, i32 0, i32 3), i64 0, i64 %919
  %921 = load i32, i32* %920, align 4
  %922 = icmp eq i32 %917, %921
  br i1 %922, label %923, label %965

; <label>:923:                                    ; preds = %912
  %924 = load i32, i32* %32, align 4
  %925 = sext i32 %924 to i64
  %926 = getelementptr inbounds [8 x %struct.tftpConnType], [8 x %struct.tftpConnType]* getelementptr inbounds (%struct.data1, %struct.data1* @network, i32 0, i32 0), i64 0, i64 %925
  %927 = getelementptr inbounds %struct.tftpConnType, %struct.tftpConnType* %926, i32 0, i32 3
  %928 = load i16, i16* %927, align 4
  %929 = zext i16 %928 to i32
  %930 = load i32, i32* %31, align 4
  %931 = sext i32 %930 to i64
  %932 = getelementptr inbounds [8 x i16], [8 x i16]* getelementptr inbounds (%struct.data1, %struct.data1* @newNetwork, i32 0, i32 4), i64 0, i64 %931
  %933 = load i16, i16* %932, align 2
  %934 = zext i16 %933 to i32
  %935 = icmp eq i32 %929, %934
  br i1 %935, label %936, label %965

; <label>:936:                                    ; preds = %923
  %937 = load i8, i8* %30, align 1
  %938 = zext i8 %937 to i64
  %939 = getelementptr inbounds [8 x %struct.tftpConnType], [8 x %struct.tftpConnType]* getelementptr inbounds (%struct.data1, %struct.data1* @newNetwork, i32 0, i32 0), i64 0, i64 %938
  %940 = bitcast %struct.tftpConnType* %939 to i8*
  %941 = load i32, i32* %32, align 4
  %942 = sext i32 %941 to i64
  %943 = getelementptr inbounds [8 x %struct.tftpConnType], [8 x %struct.tftpConnType]* getelementptr inbounds (%struct.data1, %struct.data1* @network, i32 0, i32 0), i64 0, i64 %942
  %944 = bitcast %struct.tftpConnType* %943 to i8*
  call void @llvm.memcpy.p0i8.p0i8.i64(i8* %940, i8* %944, i64 28, i32 4, i1 false)
  %945 = load i32, i32* getelementptr inbounds (%struct.data1, %struct.data1* @newNetwork, i32 0, i32 7), align 4
  %946 = load i8, i8* %30, align 1
  %947 = zext i8 %946 to i64
  %948 = getelementptr inbounds [8 x %struct.tftpConnType], [8 x %struct.tftpConnType]* getelementptr inbounds (%struct.data1, %struct.data1* @newNetwork, i32 0, i32 0), i64 0, i64 %947
  %949 = getelementptr inbounds %struct.tftpConnType, %struct.tftpConnType* %948, i32 0, i32 0
  %950 = load i32, i32* %949, align 4
  %951 = icmp slt i32 %945, %950
  br i1 %951, label %952, label %958

; <label>:952:                                    ; preds = %936
  %953 = load i8, i8* %30, align 1
  %954 = zext i8 %953 to i64
  %955 = getelementptr inbounds [8 x %struct.tftpConnType], [8 x %struct.tftpConnType]* getelementptr inbounds (%struct.data1, %struct.data1* @newNetwork, i32 0, i32 0), i64 0, i64 %954
  %956 = getelementptr inbounds %struct.tftpConnType, %struct.tftpConnType* %955, i32 0, i32 0
  %957 = load i32, i32* %956, align 4
  store i32 %957, i32* getelementptr inbounds (%struct.data1, %struct.data1* @newNetwork, i32 0, i32 7), align 4
  br label %958

; <label>:958:                                    ; preds = %952, %936
  %959 = load i32, i32* %32, align 4
  %960 = sext i32 %959 to i64
  %961 = getelementptr inbounds [8 x %struct.tftpConnType], [8 x %struct.tftpConnType]* getelementptr inbounds (%struct.data1, %struct.data1* @network, i32 0, i32 0), i64 0, i64 %960
  %962 = getelementptr inbounds %struct.tftpConnType, %struct.tftpConnType* %961, i32 0, i32 5
  store i8 0, i8* %962, align 1
  %963 = load i8, i8* %30, align 1
  %964 = add i8 %963, 1
  store i8 %964, i8* %30, align 1
  br label %1093

; <label>:965:                                    ; preds = %923, %912, %905
  %966 = call i32 @socket(i32 2, i32 2, i32 17) #10
  %967 = load i8, i8* %30, align 1
  %968 = zext i8 %967 to i64
  %969 = getelementptr inbounds [8 x %struct.tftpConnType], [8 x %struct.tftpConnType]* getelementptr inbounds (%struct.data1, %struct.data1* @newNetwork, i32 0, i32 0), i64 0, i64 %968
  %970 = getelementptr inbounds %struct.tftpConnType, %struct.tftpConnType* %969, i32 0, i32 0
  store i32 %966, i32* %970, align 4
  %971 = load i8, i8* %30, align 1
  %972 = zext i8 %971 to i64
  %973 = getelementptr inbounds [8 x %struct.tftpConnType], [8 x %struct.tftpConnType]* getelementptr inbounds (%struct.data1, %struct.data1* @newNetwork, i32 0, i32 0), i64 0, i64 %972
  %974 = getelementptr inbounds %struct.tftpConnType, %struct.tftpConnType* %973, i32 0, i32 0
  %975 = load i32, i32* %974, align 4
  %976 = icmp eq i32 %975, -1
  br i1 %976, label %977, label %979

; <label>:977:                                    ; preds = %965
  store i8 1, i8* %25, align 1
  %978 = call i32 (i8*, i8*, ...) @sprintf(i8* getelementptr inbounds ([256 x i8], [256 x i8]* @logBuff, i32 0, i32 0), i8* getelementptr inbounds ([24 x i8], [24 x i8]* @.str.109, i32 0, i32 0)) #10
  call void @_Z7logMessPch(i8* getelementptr inbounds ([256 x i8], [256 x i8]* @logBuff, i32 0, i32 0), i8 zeroext 1)
  br label %1093

; <label>:979:                                    ; preds = %965
  %980 = call i32* @__errno_location() #13
  store i32 0, i32* %980, align 4
  %981 = load i8, i8* %30, align 1
  %982 = zext i8 %981 to i64
  %983 = getelementptr inbounds [8 x %struct.tftpConnType], [8 x %struct.tftpConnType]* getelementptr inbounds (%struct.data1, %struct.data1* @newNetwork, i32 0, i32 0), i64 0, i64 %982
  %984 = getelementptr inbounds %struct.tftpConnType, %struct.tftpConnType* %983, i32 0, i32 1
  %985 = getelementptr inbounds %struct.sockaddr_in, %struct.sockaddr_in* %984, i32 0, i32 0
  store i16 2, i16* %985, align 4
  %986 = load i32, i32* %31, align 4
  %987 = sext i32 %986 to i64
  %988 = getelementptr inbounds [8 x i32], [8 x i32]* getelementptr inbounds (%struct.data1, %struct.data1* @newNetwork, i32 0, i32 3), i64 0, i64 %987
  %989 = load i32, i32* %988, align 4
  %990 = load i8, i8* %30, align 1
  %991 = zext i8 %990 to i64
  %992 = getelementptr inbounds [8 x %struct.tftpConnType], [8 x %struct.tftpConnType]* getelementptr inbounds (%struct.data1, %struct.data1* @newNetwork, i32 0, i32 0), i64 0, i64 %991
  %993 = getelementptr inbounds %struct.tftpConnType, %struct.tftpConnType* %992, i32 0, i32 1
  %994 = getelementptr inbounds %struct.sockaddr_in, %struct.sockaddr_in* %993, i32 0, i32 2
  %995 = getelementptr inbounds %struct.in_addr, %struct.in_addr* %994, i32 0, i32 0
  store i32 %989, i32* %995, align 4
  %996 = load i32, i32* %31, align 4
  %997 = sext i32 %996 to i64
  %998 = getelementptr inbounds [8 x i16], [8 x i16]* getelementptr inbounds (%struct.data1, %struct.data1* @newNetwork, i32 0, i32 4), i64 0, i64 %997
  %999 = load i16, i16* %998, align 2
  %1000 = call zeroext i16 @htons(i16 zeroext %999) #13
  %1001 = load i8, i8* %30, align 1
  %1002 = zext i8 %1001 to i64
  %1003 = getelementptr inbounds [8 x %struct.tftpConnType], [8 x %struct.tftpConnType]* getelementptr inbounds (%struct.data1, %struct.data1* @newNetwork, i32 0, i32 0), i64 0, i64 %1002
  %1004 = getelementptr inbounds %struct.tftpConnType, %struct.tftpConnType* %1003, i32 0, i32 1
  %1005 = getelementptr inbounds %struct.sockaddr_in, %struct.sockaddr_in* %1004, i32 0, i32 1
  store i16 %1000, i16* %1005, align 2
  %1006 = load i8, i8* %30, align 1
  %1007 = zext i8 %1006 to i64
  %1008 = getelementptr inbounds [8 x %struct.tftpConnType], [8 x %struct.tftpConnType]* getelementptr inbounds (%struct.data1, %struct.data1* @newNetwork, i32 0, i32 0), i64 0, i64 %1007
  %1009 = getelementptr inbounds %struct.tftpConnType, %struct.tftpConnType* %1008, i32 0, i32 0
  %1010 = load i32, i32* %1009, align 4
  %1011 = load i8, i8* %30, align 1
  %1012 = zext i8 %1011 to i64
  %1013 = getelementptr inbounds [8 x %struct.tftpConnType], [8 x %struct.tftpConnType]* getelementptr inbounds (%struct.data1, %struct.data1* @newNetwork, i32 0, i32 0), i64 0, i64 %1012
  %1014 = getelementptr inbounds %struct.tftpConnType, %struct.tftpConnType* %1013, i32 0, i32 1
  %1015 = bitcast %struct.sockaddr_in* %1014 to %struct.sockaddr*
  %1016 = call i32 @bind(i32 %1010, %struct.sockaddr* %1015, i32 16) #10
  store i32 %1016, i32* %33, align 4
  %1017 = load i32, i32* %33, align 4
  %1018 = icmp eq i32 %1017, -1
  br i1 %1018, label %1023, label %1019

; <label>:1019:                                   ; preds = %979
  %1020 = call i32* @__errno_location() #13
  %1021 = load i32, i32* %1020, align 4
  %1022 = icmp ne i32 %1021, 0
  br i1 %1022, label %1023, label %1044

; <label>:1023:                                   ; preds = %1019, %979
  store i8 1, i8* %25, align 1
  %1024 = load i8, i8* %30, align 1
  %1025 = zext i8 %1024 to i64
  %1026 = getelementptr inbounds [8 x %struct.tftpConnType], [8 x %struct.tftpConnType]* getelementptr inbounds (%struct.data1, %struct.data1* @newNetwork, i32 0, i32 0), i64 0, i64 %1025
  %1027 = getelementptr inbounds %struct.tftpConnType, %struct.tftpConnType* %1026, i32 0, i32 0
  %1028 = load i32, i32* %1027, align 4
  %1029 = call i32 @close(i32 %1028)
  %1030 = load i32, i32* %31, align 4
  %1031 = sext i32 %1030 to i64
  %1032 = getelementptr inbounds [8 x i32], [8 x i32]* getelementptr inbounds (%struct.data1, %struct.data1* @newNetwork, i32 0, i32 3), i64 0, i64 %1031
  %1033 = load i32, i32* %1032, align 4
  %1034 = call i8* @_Z9IP2StringPcj(i8* getelementptr inbounds ([256 x i8], [256 x i8]* @tempbuff, i32 0, i32 0), i32 %1033)
  %1035 = load i32, i32* %31, align 4
  %1036 = sext i32 %1035 to i64
  %1037 = getelementptr inbounds [8 x i16], [8 x i16]* getelementptr inbounds (%struct.data1, %struct.data1* @newNetwork, i32 0, i32 4), i64 0, i64 %1036
  %1038 = load i16, i16* %1037, align 2
  %1039 = zext i16 %1038 to i32
  %1040 = call i32* @__errno_location() #13
  %1041 = load i32, i32* %1040, align 4
  %1042 = call i8* @strerror(i32 %1041) #10
  %1043 = call i32 (i8*, i8*, ...) @sprintf(i8* getelementptr inbounds ([256 x i8], [256 x i8]* @logBuff, i32 0, i32 0), i8* getelementptr inbounds ([27 x i8], [27 x i8]* @.str.112, i32 0, i32 0), i8* %1034, i32 %1039, i8* %1042) #10
  call void @_Z7logMessPch(i8* getelementptr inbounds ([256 x i8], [256 x i8]* @logBuff, i32 0, i32 0), i8 zeroext 1)
  br label %1093

; <label>:1044:                                   ; preds = %1019
  %1045 = load i8, i8* %30, align 1
  %1046 = zext i8 %1045 to i64
  %1047 = getelementptr inbounds [8 x %struct.tftpConnType], [8 x %struct.tftpConnType]* getelementptr inbounds (%struct.data1, %struct.data1* @newNetwork, i32 0, i32 0), i64 0, i64 %1046
  %1048 = getelementptr inbounds %struct.tftpConnType, %struct.tftpConnType* %1047, i32 0, i32 4
  store i8 1, i8* %1048, align 2
  %1049 = load i8, i8* %30, align 1
  %1050 = zext i8 %1049 to i64
  %1051 = getelementptr inbounds [8 x %struct.tftpConnType], [8 x %struct.tftpConnType]* getelementptr inbounds (%struct.data1, %struct.data1* @newNetwork, i32 0, i32 0), i64 0, i64 %1050
  %1052 = getelementptr inbounds %struct.tftpConnType, %struct.tftpConnType* %1051, i32 0, i32 5
  store i8 1, i8* %1052, align 1
  %1053 = load i32, i32* %31, align 4
  %1054 = sext i32 %1053 to i64
  %1055 = getelementptr inbounds [8 x i32], [8 x i32]* getelementptr inbounds (%struct.data1, %struct.data1* @newNetwork, i32 0, i32 3), i64 0, i64 %1054
  %1056 = load i32, i32* %1055, align 4
  %1057 = load i8, i8* %30, align 1
  %1058 = zext i8 %1057 to i64
  %1059 = getelementptr inbounds [8 x %struct.tftpConnType], [8 x %struct.tftpConnType]* getelementptr inbounds (%struct.data1, %struct.data1* @newNetwork, i32 0, i32 0), i64 0, i64 %1058
  %1060 = getelementptr inbounds %struct.tftpConnType, %struct.tftpConnType* %1059, i32 0, i32 2
  store i32 %1056, i32* %1060, align 4
  %1061 = load i32, i32* %31, align 4
  %1062 = sext i32 %1061 to i64
  %1063 = getelementptr inbounds [8 x i16], [8 x i16]* getelementptr inbounds (%struct.data1, %struct.data1* @newNetwork, i32 0, i32 4), i64 0, i64 %1062
  %1064 = load i16, i16* %1063, align 2
  %1065 = load i8, i8* %30, align 1
  %1066 = zext i8 %1065 to i64
  %1067 = getelementptr inbounds [8 x %struct.tftpConnType], [8 x %struct.tftpConnType]* getelementptr inbounds (%struct.data1, %struct.data1* @newNetwork, i32 0, i32 0), i64 0, i64 %1066
  %1068 = getelementptr inbounds %struct.tftpConnType, %struct.tftpConnType* %1067, i32 0, i32 3
  store i16 %1064, i16* %1068, align 4
  %1069 = load i32, i32* getelementptr inbounds (%struct.data1, %struct.data1* @newNetwork, i32 0, i32 7), align 4
  %1070 = load i8, i8* %30, align 1
  %1071 = zext i8 %1070 to i64
  %1072 = getelementptr inbounds [8 x %struct.tftpConnType], [8 x %struct.tftpConnType]* getelementptr inbounds (%struct.data1, %struct.data1* @newNetwork, i32 0, i32 0), i64 0, i64 %1071
  %1073 = getelementptr inbounds %struct.tftpConnType, %struct.tftpConnType* %1072, i32 0, i32 0
  %1074 = load i32, i32* %1073, align 4
  %1075 = icmp slt i32 %1069, %1074
  br i1 %1075, label %1076, label %1082

; <label>:1076:                                   ; preds = %1044
  %1077 = load i8, i8* %30, align 1
  %1078 = zext i8 %1077 to i64
  %1079 = getelementptr inbounds [8 x %struct.tftpConnType], [8 x %struct.tftpConnType]* getelementptr inbounds (%struct.data1, %struct.data1* @newNetwork, i32 0, i32 0), i64 0, i64 %1078
  %1080 = getelementptr inbounds %struct.tftpConnType, %struct.tftpConnType* %1079, i32 0, i32 0
  %1081 = load i32, i32* %1080, align 4
  store i32 %1081, i32* getelementptr inbounds (%struct.data1, %struct.data1* @newNetwork, i32 0, i32 7), align 4
  br label %1082

; <label>:1082:                                   ; preds = %1076, %1044
  %1083 = load i32, i32* %31, align 4
  %1084 = sext i32 %1083 to i64
  %1085 = getelementptr inbounds [8 x i32], [8 x i32]* getelementptr inbounds (%struct.data1, %struct.data1* @newNetwork, i32 0, i32 3), i64 0, i64 %1084
  %1086 = load i32, i32* %1085, align 4
  %1087 = icmp ne i32 %1086, 0
  br i1 %1087, label %1089, label %1088

; <label>:1088:                                   ; preds = %1082
  br label %1096

; <label>:1089:                                   ; preds = %1082
  %1090 = load i8, i8* %30, align 1
  %1091 = add i8 %1090, 1
  store i8 %1091, i8* %30, align 1
  br label %1092

; <label>:1092:                                   ; preds = %1089
  br label %1093

; <label>:1093:                                   ; preds = %1092, %1023, %977, %958
  %1094 = load i32, i32* %31, align 4
  %1095 = add nsw i32 %1094, 1
  store i32 %1095, i32* %31, align 4
  br label %845

; <label>:1096:                                   ; preds = %1088, %854
  %1097 = load i32, i32* getelementptr inbounds (%struct.data1, %struct.data1* @newNetwork, i32 0, i32 7), align 4
  %1098 = add nsw i32 %1097, 1
  store i32 %1098, i32* getelementptr inbounds (%struct.data1, %struct.data1* @newNetwork, i32 0, i32 7), align 4
  %1099 = load i8, i8* %25, align 1
  %1100 = trunc i8 %1099 to i1
  br i1 %1100, label %1101, label %1104

; <label>:1101:                                   ; preds = %1096
  %1102 = load i32, i32* getelementptr inbounds (%struct.data2, %struct.data2* @cfig, i32 0, i32 13), align 4
  %1103 = add i32 %1102, 1
  store i32 %1103, i32* getelementptr inbounds (%struct.data2, %struct.data2* @cfig, i32 0, i32 13), align 4
  br label %1105

; <label>:1104:                                   ; preds = %1096
  store i32 0, i32* getelementptr inbounds (%struct.data2, %struct.data2* @cfig, i32 0, i32 13), align 4
  br label %1105

; <label>:1105:                                   ; preds = %1104, %1101
  call void @_Z9closeConnv()
  call void @llvm.memcpy.p0i8.p0i8.i64(i8* bitcast (%struct.data1* @network to i8*), i8* bitcast (%struct.data1* @newNetwork to i8*), i64 344, i32 4, i1 false)
  %1106 = load i8, i8* getelementptr inbounds (%struct.data1, %struct.data1* @network, i32 0, i32 0, i64 0, i32 5), align 1
  %1107 = trunc i8 %1106 to i1
  br i1 %1107, label %1110, label %1108

; <label>:1108:                                   ; preds = %1105
  %1109 = call i32 (i8*, i8*, ...) @sprintf(i8* getelementptr inbounds ([256 x i8], [256 x i8]* @logBuff, i32 0, i32 0), i8* getelementptr inbounds ([38 x i8], [38 x i8]* @.str.113, i32 0, i32 0)) #10
  call void @_Z7logMessPch(i8* getelementptr inbounds ([256 x i8], [256 x i8]* @logBuff, i32 0, i32 0), i8 zeroext 1)
  br label %1141

; <label>:1110:                                   ; preds = %1105
  store i32 0, i32* %34, align 4
  br label %1111

; <label>:1111:                                   ; preds = %1137, %1110
  %1112 = load i32, i32* %34, align 4
  %1113 = icmp slt i32 %1112, 8
  br i1 %1113, label %1114, label %1121

; <label>:1114:                                   ; preds = %1111
  %1115 = load i32, i32* %34, align 4
  %1116 = sext i32 %1115 to i64
  %1117 = getelementptr inbounds [8 x %struct.tftpConnType], [8 x %struct.tftpConnType]* getelementptr inbounds (%struct.data1, %struct.data1* @network, i32 0, i32 0), i64 0, i64 %1116
  %1118 = getelementptr inbounds %struct.tftpConnType, %struct.tftpConnType* %1117, i32 0, i32 3
  %1119 = load i16, i16* %1118, align 4
  %1120 = icmp ne i16 %1119, 0
  br label %1121

; <label>:1121:                                   ; preds = %1114, %1111
  %1122 = phi i1 [ false, %1111 ], [ %1120, %1114 ]
  br i1 %1122, label %1123, label %1140

; <label>:1123:                                   ; preds = %1121
  %1124 = load i32, i32* %34, align 4
  %1125 = sext i32 %1124 to i64
  %1126 = getelementptr inbounds [8 x %struct.tftpConnType], [8 x %struct.tftpConnType]* getelementptr inbounds (%struct.data1, %struct.data1* @network, i32 0, i32 0), i64 0, i64 %1125
  %1127 = getelementptr inbounds %struct.tftpConnType, %struct.tftpConnType* %1126, i32 0, i32 2
  %1128 = load i32, i32* %1127, align 4
  %1129 = call i8* @_Z9IP2StringPcj(i8* getelementptr inbounds ([256 x i8], [256 x i8]* @tempbuff, i32 0, i32 0), i32 %1128)
  %1130 = load i32, i32* %34, align 4
  %1131 = sext i32 %1130 to i64
  %1132 = getelementptr inbounds [8 x %struct.tftpConnType], [8 x %struct.tftpConnType]* getelementptr inbounds (%struct.data1, %struct.data1* @network, i32 0, i32 0), i64 0, i64 %1131
  %1133 = getelementptr inbounds %struct.tftpConnType, %struct.tftpConnType* %1132, i32 0, i32 3
  %1134 = load i16, i16* %1133, align 4
  %1135 = zext i16 %1134 to i32
  %1136 = call i32 (i8*, i8*, ...) @sprintf(i8* getelementptr inbounds ([256 x i8], [256 x i8]* @logBuff, i32 0, i32 0), i8* getelementptr inbounds ([20 x i8], [20 x i8]* @.str.114, i32 0, i32 0), i8* %1129, i32 %1135) #10
  call void @_Z7logMessPch(i8* getelementptr inbounds ([256 x i8], [256 x i8]* @logBuff, i32 0, i32 0), i8 zeroext 1)
  br label %1137

; <label>:1137:                                   ; preds = %1123
  %1138 = load i32, i32* %34, align 4
  %1139 = add nsw i32 %1138, 1
  store i32 %1139, i32* %34, align 4
  br label %1111

; <label>:1140:                                   ; preds = %1121
  store i8 1, i8* getelementptr inbounds (%struct.data1, %struct.data1* @network, i32 0, i32 5), align 4
  br label %1141

; <label>:1141:                                   ; preds = %1140, %1108
  %1142 = call zeroext i1 @_Z12detectChangev()
  br i1 %1142, label %751, label %1143

; <label>:1143:                                   ; preds = %1141
  call void @pthread_exit(i8* null) #14
  unreachable
                                                  ; No predecessors!
  %1145 = load i8*, i8** %2, align 8
  ret i8* %1145
}

; Function Attrs: nounwind
declare i32 @pthread_attr_destroy(%union.pthread_attr_t*) #1

; Function Attrs: nounwind
declare i8* @strerror(i32) #1

; Function Attrs: noinline optnone uwtable
define void @_Z7logMessPch(i8*, i8 zeroext) #6 {
  %3 = alloca i8*, align 8
  %4 = alloca i8, align 1
  %5 = alloca i64, align 8
  %6 = alloca %struct.tm*, align 8
  store i8* %0, i8** %3, align 8
  store i8 %1, i8* %4, align 1
  %7 = call i32 @pthread_mutex_lock(%union.pthread_mutex_t* @mutLog) #10
  %8 = load i8, i8* @verbatim, align 1
  %9 = trunc i8 %8 to i1
  br i1 %9, label %10, label %13

; <label>:10:                                     ; preds = %2
  %11 = load i8*, i8** %3, align 8
  %12 = call i32 (i8*, ...) @printf(i8* getelementptr inbounds ([4 x i8], [4 x i8]* @.str.5, i32 0, i32 0), i8* %11)
  br label %68

; <label>:13:                                     ; preds = %2
  %14 = load %struct._IO_FILE*, %struct._IO_FILE** getelementptr inbounds (%struct.data2, %struct.data2* @cfig, i32 0, i32 2), align 8
  %15 = icmp ne %struct._IO_FILE* %14, null
  br i1 %15, label %16, label %58

; <label>:16:                                     ; preds = %13
  %17 = load i8, i8* %4, align 1
  %18 = zext i8 %17 to i32
  %19 = load i8, i8* getelementptr inbounds (%struct.data2, %struct.data2* @cfig, i32 0, i32 12), align 8
  %20 = zext i8 %19 to i32
  %21 = icmp sle i32 %18, %20
  br i1 %21, label %22, label %58

; <label>:22:                                     ; preds = %16
  %23 = call i64 @time(i64* null) #10
  store i64 %23, i64* %5, align 8
  %24 = call %struct.tm* @localtime(i64* %5) #10
  store %struct.tm* %24, %struct.tm** %6, align 8
  %25 = load %struct.tm*, %struct.tm** %6, align 8
  %26 = getelementptr inbounds %struct.tm, %struct.tm* %25, i32 0, i32 7
  %27 = load i32, i32* %26, align 4
  %28 = load i16, i16* @loggingDay, align 2
  %29 = zext i16 %28 to i32
  %30 = icmp ne i32 %27, %29
  br i1 %30, label %31, label %50

; <label>:31:                                     ; preds = %22
  %32 = load %struct.tm*, %struct.tm** %6, align 8
  %33 = getelementptr inbounds %struct.tm, %struct.tm* %32, i32 0, i32 7
  %34 = load i32, i32* %33, align 4
  %35 = trunc i32 %34 to i16
  store i16 %35, i16* @loggingDay, align 2
  %36 = load %struct.tm*, %struct.tm** %6, align 8
  %37 = call i64 @strftime(i8* getelementptr inbounds ([256 x i8], [256 x i8]* @extbuff, i32 0, i32 0), i64 256, i8* getelementptr inbounds ([256 x i8], [256 x i8]* @logFile, i32 0, i32 0), %struct.tm* %36) #10
  %38 = load %struct._IO_FILE*, %struct._IO_FILE** getelementptr inbounds (%struct.data2, %struct.data2* @cfig, i32 0, i32 2), align 8
  %39 = call i32 (%struct._IO_FILE*, i8*, ...) @fprintf(%struct._IO_FILE* %38, i8* getelementptr inbounds ([30 x i8], [30 x i8]* @.str.117, i32 0, i32 0), i8* getelementptr inbounds ([256 x i8], [256 x i8]* @extbuff, i32 0, i32 0))
  %40 = load %struct._IO_FILE*, %struct._IO_FILE** getelementptr inbounds (%struct.data2, %struct.data2* @cfig, i32 0, i32 2), align 8
  %41 = call i32 @fclose(%struct._IO_FILE* %40)
  %42 = call %struct._IO_FILE* @fopen(i8* getelementptr inbounds ([256 x i8], [256 x i8]* @extbuff, i32 0, i32 0), i8* getelementptr inbounds ([3 x i8], [3 x i8]* @.str.63, i32 0, i32 0))
  store %struct._IO_FILE* %42, %struct._IO_FILE** getelementptr inbounds (%struct.data2, %struct.data2* @cfig, i32 0, i32 2), align 8
  %43 = load %struct._IO_FILE*, %struct._IO_FILE** getelementptr inbounds (%struct.data2, %struct.data2* @cfig, i32 0, i32 2), align 8
  %44 = icmp ne %struct._IO_FILE* %43, null
  br i1 %44, label %45, label %48

; <label>:45:                                     ; preds = %31
  %46 = load %struct._IO_FILE*, %struct._IO_FILE** getelementptr inbounds (%struct.data2, %struct.data2* @cfig, i32 0, i32 2), align 8
  %47 = call i32 (%struct._IO_FILE*, i8*, ...) @fprintf(%struct._IO_FILE* %46, i8* getelementptr inbounds ([5 x i8], [5 x i8]* @.str.57, i32 0, i32 0), i8* getelementptr inbounds ([55 x i8], [55 x i8]* @sVersion, i32 0, i32 0))
  br label %49

; <label>:48:                                     ; preds = %31
  br label %70

; <label>:49:                                     ; preds = %45
  br label %50

; <label>:50:                                     ; preds = %49, %22
  %51 = load %struct.tm*, %struct.tm** %6, align 8
  %52 = call i64 @strftime(i8* getelementptr inbounds ([256 x i8], [256 x i8]* @extbuff, i32 0, i32 0), i64 256, i8* getelementptr inbounds ([12 x i8], [12 x i8]* @.str.118, i32 0, i32 0), %struct.tm* %51) #10
  %53 = load %struct._IO_FILE*, %struct._IO_FILE** getelementptr inbounds (%struct.data2, %struct.data2* @cfig, i32 0, i32 2), align 8
  %54 = load i8*, i8** %3, align 8
  %55 = call i32 (%struct._IO_FILE*, i8*, ...) @fprintf(%struct._IO_FILE* %53, i8* getelementptr inbounds ([9 x i8], [9 x i8]* @.str.119, i32 0, i32 0), i8* getelementptr inbounds ([256 x i8], [256 x i8]* @extbuff, i32 0, i32 0), i8* %54)
  %56 = load %struct._IO_FILE*, %struct._IO_FILE** getelementptr inbounds (%struct.data2, %struct.data2* @cfig, i32 0, i32 2), align 8
  %57 = call i32 @fflush(%struct._IO_FILE* %56)
  br label %67

; <label>:58:                                     ; preds = %16, %13
  %59 = load i8, i8* %4, align 1
  %60 = zext i8 %59 to i32
  %61 = load i8, i8* getelementptr inbounds (%struct.data2, %struct.data2* @cfig, i32 0, i32 12), align 8
  %62 = zext i8 %61 to i32
  %63 = icmp sle i32 %60, %62
  br i1 %63, label %64, label %66

; <label>:64:                                     ; preds = %58
  %65 = load i8*, i8** %3, align 8
  call void (i32, i8*, ...) @syslog(i32 138, i8* %65)
  br label %66

; <label>:66:                                     ; preds = %64, %58
  br label %67

; <label>:67:                                     ; preds = %66, %50
  br label %68

; <label>:68:                                     ; preds = %67, %10
  %69 = call i32 @pthread_mutex_unlock(%union.pthread_mutex_t* @mutLog) #10
  br label %70

; <label>:70:                                     ; preds = %68, %48
  ret void
}

declare i32 @sleep(i32) #4

; Function Attrs: nounwind
declare i32 @setuid(i32) #1

; Function Attrs: nounwind
declare i32 @setgid(i32) #1

; Function Attrs: nounwind
declare i32 @pthread_mutex_lock(%union.pthread_mutex_t*) #1

declare i32 @select(i32, %struct.fd_set*, %struct.fd_set*, %struct.fd_set*, %struct.timeval*) #4

; Function Attrs: nounwind
declare i32 @pthread_mutex_unlock(%union.pthread_mutex_t*) #1

; Function Attrs: noinline optnone uwtable
define i8* @_Z14processRequestPv(i8*) #6 {
  %2 = alloca i8*, align 8
  %3 = alloca i8*, align 8
  %4 = alloca %struct.request, align 8
  %5 = alloca i32, align 4
  %6 = alloca i8, align 1
  %7 = alloca i32, align 4
  %8 = alloca i8, align 1
  %9 = alloca %struct.sockaddr_in, align 4
  %10 = alloca i16, align 2
  %11 = alloca i8*, align 8
  %12 = alloca i32, align 4
  %13 = alloca i8*, align 8
  %14 = alloca i32, align 4
  %15 = alloca i8*, align 8
  %16 = alloca i32, align 4
  %17 = alloca i8*, align 8
  %18 = alloca i32, align 4
  %19 = alloca i64, align 8
  %20 = alloca i32, align 4
  %21 = alloca i32, align 4
  %22 = alloca %struct.in_addr, align 4
  %23 = alloca i32, align 4
  %24 = alloca i32, align 4
  store i8* %0, i8** %3, align 8
  %25 = call i32 @pthread_mutex_lock(%union.pthread_mutex_t* @mutCount) #10
  %26 = load i16, i16* @totalThreads, align 2
  %27 = add i16 %26, 1
  store i16 %27, i16* @totalThreads, align 2
  %28 = call i32 @pthread_mutex_unlock(%union.pthread_mutex_t* @mutCount) #10
  br label %29

; <label>:29:                                     ; preds = %2810, %1
  %30 = call i32 @pthread_mutex_lock(%union.pthread_mutex_t* @mutThread) #10
  %31 = call i32 @pthread_mutex_lock(%union.pthread_mutex_t* @mutCount) #10
  %32 = load i16, i16* @activeThreads, align 2
  %33 = add i16 %32, 1
  store i16 %33, i16* @activeThreads, align 2
  %34 = call i32 @pthread_mutex_unlock(%union.pthread_mutex_t* @mutCount) #10
  %35 = load i32, i32* @currentServer, align 4
  %36 = icmp sge i32 %35, 8
  br i1 %36, label %44, label %37

; <label>:37:                                     ; preds = %29
  %38 = load i32, i32* @currentServer, align 4
  %39 = sext i32 %38 to i64
  %40 = getelementptr inbounds [8 x %struct.tftpConnType], [8 x %struct.tftpConnType]* getelementptr inbounds (%struct.data1, %struct.data1* @network, i32 0, i32 0), i64 0, i64 %39
  %41 = getelementptr inbounds %struct.tftpConnType, %struct.tftpConnType* %40, i32 0, i32 3
  %42 = load i16, i16* %41, align 4
  %43 = icmp ne i16 %42, 0
  br i1 %43, label %47, label %44

; <label>:44:                                     ; preds = %37, %29
  %45 = call i32 @pthread_mutex_unlock(%union.pthread_mutex_t* @mutSocket) #10
  %46 = getelementptr inbounds %struct.request, %struct.request* %4, i32 0, i32 6
  store i8 -1, i8* %46, align 1
  br label %2810

; <label>:47:                                     ; preds = %37
  %48 = bitcast %struct.request* %4 to i8*
  call void @llvm.memset.p0i8.i64(i8* %48, i8 0, i64 1560, i32 8, i1 false)
  %49 = getelementptr inbounds %struct.request, %struct.request* %4, i32 0, i32 3
  store i32 -1, i32* %49, align 8
  %50 = getelementptr inbounds %struct.request, %struct.request* %4, i32 0, i32 19
  store i32 16, i32* %50, align 8
  %51 = load i32, i32* @currentServer, align 4
  %52 = trunc i32 %51 to i8
  %53 = getelementptr inbounds %struct.request, %struct.request* %4, i32 0, i32 5
  store i8 %52, i8* %53, align 8
  store i32 255, i32* @currentServer, align 4
  %54 = getelementptr inbounds %struct.request, %struct.request* %4, i32 0, i32 5
  %55 = load i8, i8* %54, align 8
  %56 = zext i8 %55 to i64
  %57 = getelementptr inbounds [8 x %struct.tftpConnType], [8 x %struct.tftpConnType]* getelementptr inbounds (%struct.data1, %struct.data1* @network, i32 0, i32 0), i64 0, i64 %56
  %58 = getelementptr inbounds %struct.tftpConnType, %struct.tftpConnType* %57, i32 0, i32 0
  %59 = load i32, i32* %58, align 4
  %60 = getelementptr inbounds %struct.request, %struct.request* %4, i32 0, i32 4
  store i32 %59, i32* %60, align 4
  %61 = getelementptr inbounds %struct.request, %struct.request* %4, i32 0, i32 4
  %62 = load i32, i32* %61, align 4
  %63 = icmp slt i32 %62, 0
  br i1 %63, label %64, label %67

; <label>:64:                                     ; preds = %47
  %65 = call i32 @pthread_mutex_unlock(%union.pthread_mutex_t* @mutSocket) #10
  %66 = getelementptr inbounds %struct.request, %struct.request* %4, i32 0, i32 6
  store i8 -1, i8* %66, align 1
  br label %2810

; <label>:67:                                     ; preds = %47
  %68 = call i32* @__errno_location() #13
  store i32 0, i32* %68, align 4
  %69 = getelementptr inbounds %struct.request, %struct.request* %4, i32 0, i32 4
  %70 = load i32, i32* %69, align 4
  %71 = getelementptr inbounds %struct.request, %struct.request* %4, i32 0, i32 21
  %72 = bitcast %union.anon.3* %71 to %struct.message*
  %73 = bitcast %struct.message* %72 to i8*
  %74 = getelementptr inbounds %struct.request, %struct.request* %4, i32 0, i32 18
  %75 = bitcast %struct.sockaddr_in* %74 to %struct.sockaddr*
  %76 = getelementptr inbounds %struct.request, %struct.request* %4, i32 0, i32 19
  %77 = call i64 @recvfrom(i32 %70, i8* %73, i64 516, i32 0, %struct.sockaddr* %75, i32* %76)
  %78 = trunc i64 %77 to i32
  %79 = getelementptr inbounds %struct.request, %struct.request* %4, i32 0, i32 15
  store i32 %78, i32* %79, align 4
  %80 = call i32 @pthread_mutex_unlock(%union.pthread_mutex_t* @mutSocket) #10
  %81 = call i32* @__errno_location() #13
  %82 = load i32, i32* %81, align 4
  %83 = icmp ne i32 %82, 0
  br i1 %83, label %239, label %84

; <label>:84:                                     ; preds = %67
  %85 = getelementptr inbounds %struct.request, %struct.request* %4, i32 0, i32 15
  %86 = load i32, i32* %85, align 4
  %87 = icmp sgt i32 %86, 0
  br i1 %87, label %88, label %239

; <label>:88:                                     ; preds = %84
  %89 = load i32, i32* getelementptr inbounds (%struct.data2, %struct.data2* @cfig, i32 0, i32 0, i64 0, i32 0), align 8
  %90 = icmp ne i32 %89, 0
  br i1 %90, label %91, label %165

; <label>:91:                                     ; preds = %88
  %92 = getelementptr inbounds %struct.request, %struct.request* %4, i32 0, i32 18
  %93 = getelementptr inbounds %struct.sockaddr_in, %struct.sockaddr_in* %92, i32 0, i32 2
  %94 = getelementptr inbounds %struct.in_addr, %struct.in_addr* %93, i32 0, i32 0
  %95 = load i32, i32* %94, align 4
  %96 = call i32 @ntohl(i32 %95) #13
  store i32 %96, i32* %5, align 4
  store i8 0, i8* %6, align 1
  store i32 0, i32* %7, align 4
  br label %97

; <label>:97:                                     ; preds = %127, %91
  %98 = load i32, i32* %7, align 4
  %99 = icmp sle i32 %98, 32
  br i1 %99, label %100, label %107

; <label>:100:                                    ; preds = %97
  %101 = load i32, i32* %7, align 4
  %102 = sext i32 %101 to i64
  %103 = getelementptr inbounds [32 x %struct.data12], [32 x %struct.data12]* getelementptr inbounds (%struct.data2, %struct.data2* @cfig, i32 0, i32 0), i64 0, i64 %102
  %104 = getelementptr inbounds %struct.data12, %struct.data12* %103, i32 0, i32 0
  %105 = load i32, i32* %104, align 8
  %106 = icmp ne i32 %105, 0
  br label %107

; <label>:107:                                    ; preds = %100, %97
  %108 = phi i1 [ false, %97 ], [ %106, %100 ]
  br i1 %108, label %109, label %130

; <label>:109:                                    ; preds = %107
  %110 = load i32, i32* %5, align 4
  %111 = load i32, i32* %7, align 4
  %112 = sext i32 %111 to i64
  %113 = getelementptr inbounds [32 x %struct.data12], [32 x %struct.data12]* getelementptr inbounds (%struct.data2, %struct.data2* @cfig, i32 0, i32 0), i64 0, i64 %112
  %114 = getelementptr inbounds %struct.data12, %struct.data12* %113, i32 0, i32 0
  %115 = load i32, i32* %114, align 8
  %116 = icmp uge i32 %110, %115
  br i1 %116, label %117, label %126

; <label>:117:                                    ; preds = %109
  %118 = load i32, i32* %5, align 4
  %119 = load i32, i32* %7, align 4
  %120 = sext i32 %119 to i64
  %121 = getelementptr inbounds [32 x %struct.data12], [32 x %struct.data12]* getelementptr inbounds (%struct.data2, %struct.data2* @cfig, i32 0, i32 0), i64 0, i64 %120
  %122 = getelementptr inbounds %struct.data12, %struct.data12* %121, i32 0, i32 1
  %123 = load i32, i32* %122, align 4
  %124 = icmp ule i32 %118, %123
  br i1 %124, label %125, label %126

; <label>:125:                                    ; preds = %117
  store i8 1, i8* %6, align 1
  br label %130

; <label>:126:                                    ; preds = %117, %109
  br label %127

; <label>:127:                                    ; preds = %126
  %128 = load i32, i32* %7, align 4
  %129 = add nsw i32 %128, 1
  store i32 %129, i32* %7, align 4
  br label %97

; <label>:130:                                    ; preds = %125, %107
  %131 = load i8, i8* %6, align 1
  %132 = trunc i8 %131 to i1
  br i1 %132, label %164, label %133

; <label>:133:                                    ; preds = %130
  %134 = call zeroext i16 @htons(i16 zeroext 5) #13
  %135 = getelementptr inbounds %struct.request, %struct.request* %4, i32 0, i32 20
  %136 = bitcast %union.anon.2* %135 to %struct.tftperror*
  %137 = getelementptr inbounds %struct.tftperror, %struct.tftperror* %136, i32 0, i32 0
  store i16 %134, i16* %137, align 4
  %138 = call zeroext i16 @htons(i16 zeroext 2) #13
  %139 = getelementptr inbounds %struct.request, %struct.request* %4, i32 0, i32 20
  %140 = bitcast %union.anon.2* %139 to %struct.tftperror*
  %141 = getelementptr inbounds %struct.tftperror, %struct.tftperror* %140, i32 0, i32 1
  store i16 %138, i16* %141, align 2
  %142 = getelementptr inbounds %struct.request, %struct.request* %4, i32 0, i32 20
  %143 = bitcast %union.anon.2* %142 to %struct.tftperror*
  %144 = getelementptr inbounds %struct.tftperror, %struct.tftperror* %143, i32 0, i32 2
  %145 = getelementptr inbounds [512 x i8], [512 x i8]* %144, i32 0, i32 0
  %146 = call i8* @strcpy(i8* %145, i8* getelementptr inbounds ([14 x i8], [14 x i8]* @.str.12, i32 0, i32 0)) #10
  call void @_Z7logMessP7requesth(%struct.request* %4, i8 zeroext 1)
  %147 = getelementptr inbounds %struct.request, %struct.request* %4, i32 0, i32 4
  %148 = load i32, i32* %147, align 4
  %149 = getelementptr inbounds %struct.request, %struct.request* %4, i32 0, i32 20
  %150 = bitcast %union.anon.2* %149 to %struct.tftperror*
  %151 = bitcast %struct.tftperror* %150 to i8*
  %152 = getelementptr inbounds %struct.request, %struct.request* %4, i32 0, i32 20
  %153 = bitcast %union.anon.2* %152 to %struct.tftperror*
  %154 = getelementptr inbounds %struct.tftperror, %struct.tftperror* %153, i32 0, i32 2
  %155 = getelementptr inbounds [512 x i8], [512 x i8]* %154, i32 0, i32 0
  %156 = call i64 @strlen(i8* %155) #11
  %157 = add i64 %156, 5
  %158 = getelementptr inbounds %struct.request, %struct.request* %4, i32 0, i32 18
  %159 = bitcast %struct.sockaddr_in* %158 to %struct.sockaddr*
  %160 = getelementptr inbounds %struct.request, %struct.request* %4, i32 0, i32 19
  %161 = load i32, i32* %160, align 8
  %162 = call i64 @sendto(i32 %148, i8* %151, i64 %157, i32 0, %struct.sockaddr* %159, i32 %161)
  %163 = getelementptr inbounds %struct.request, %struct.request* %4, i32 0, i32 6
  store i8 -1, i8* %163, align 1
  br label %2810

; <label>:164:                                    ; preds = %130
  br label %165

; <label>:165:                                    ; preds = %164, %88
  %166 = getelementptr inbounds %struct.request, %struct.request* %4, i32 0, i32 21
  %167 = bitcast %union.anon.3* %166 to %struct.message*
  %168 = getelementptr inbounds %struct.message, %struct.message* %167, i32 0, i32 0
  %169 = load i16, i16* %168, align 8
  %170 = call zeroext i16 @htons(i16 zeroext %169) #13
  %171 = zext i16 %170 to i32
  %172 = icmp eq i32 %171, 5
  br i1 %172, label %173, label %190

; <label>:173:                                    ; preds = %165
  %174 = getelementptr inbounds %struct.request, %struct.request* %4, i32 0, i32 20
  %175 = bitcast %union.anon.2* %174 to %struct.tftperror*
  %176 = getelementptr inbounds %struct.tftperror, %struct.tftperror* %175, i32 0, i32 2
  %177 = getelementptr inbounds [512 x i8], [512 x i8]* %176, i32 0, i32 0
  %178 = getelementptr inbounds %struct.request, %struct.request* %4, i32 0, i32 21
  %179 = bitcast %union.anon.3* %178 to %struct.tftperror*
  %180 = getelementptr inbounds %struct.tftperror, %struct.tftperror* %179, i32 0, i32 1
  %181 = load i16, i16* %180, align 2
  %182 = call zeroext i16 @ntohs(i16 zeroext %181) #13
  %183 = zext i16 %182 to i32
  %184 = getelementptr inbounds %struct.request, %struct.request* %4, i32 0, i32 21
  %185 = bitcast %union.anon.3* %184 to %struct.tftperror*
  %186 = getelementptr inbounds %struct.tftperror, %struct.tftperror* %185, i32 0, i32 2
  %187 = getelementptr inbounds [512 x i8], [512 x i8]* %186, i32 0, i32 0
  %188 = call i32 (i8*, i8*, ...) @sprintf(i8* %177, i8* getelementptr inbounds ([28 x i8], [28 x i8]* @.str.13, i32 0, i32 0), i32 %183, i8* %187) #10
  call void @_Z7logMessP7requesth(%struct.request* %4, i8 zeroext 2)
  %189 = getelementptr inbounds %struct.request, %struct.request* %4, i32 0, i32 6
  store i8 -1, i8* %189, align 1
  br label %2810

; <label>:190:                                    ; preds = %165
  %191 = getelementptr inbounds %struct.request, %struct.request* %4, i32 0, i32 21
  %192 = bitcast %union.anon.3* %191 to %struct.message*
  %193 = getelementptr inbounds %struct.message, %struct.message* %192, i32 0, i32 0
  %194 = load i16, i16* %193, align 8
  %195 = call zeroext i16 @htons(i16 zeroext %194) #13
  %196 = zext i16 %195 to i32
  %197 = icmp ne i32 %196, 1
  br i1 %197, label %198, label %237

; <label>:198:                                    ; preds = %190
  %199 = getelementptr inbounds %struct.request, %struct.request* %4, i32 0, i32 21
  %200 = bitcast %union.anon.3* %199 to %struct.message*
  %201 = getelementptr inbounds %struct.message, %struct.message* %200, i32 0, i32 0
  %202 = load i16, i16* %201, align 8
  %203 = call zeroext i16 @htons(i16 zeroext %202) #13
  %204 = zext i16 %203 to i32
  %205 = icmp ne i32 %204, 2
  br i1 %205, label %206, label %237

; <label>:206:                                    ; preds = %198
  %207 = call zeroext i16 @htons(i16 zeroext 5) #13
  %208 = getelementptr inbounds %struct.request, %struct.request* %4, i32 0, i32 20
  %209 = bitcast %union.anon.2* %208 to %struct.tftperror*
  %210 = getelementptr inbounds %struct.tftperror, %struct.tftperror* %209, i32 0, i32 0
  store i16 %207, i16* %210, align 4
  %211 = call zeroext i16 @htons(i16 zeroext 5) #13
  %212 = getelementptr inbounds %struct.request, %struct.request* %4, i32 0, i32 20
  %213 = bitcast %union.anon.2* %212 to %struct.tftperror*
  %214 = getelementptr inbounds %struct.tftperror, %struct.tftperror* %213, i32 0, i32 1
  store i16 %211, i16* %214, align 2
  %215 = getelementptr inbounds %struct.request, %struct.request* %4, i32 0, i32 20
  %216 = bitcast %union.anon.2* %215 to %struct.tftperror*
  %217 = getelementptr inbounds %struct.tftperror, %struct.tftperror* %216, i32 0, i32 2
  %218 = getelementptr inbounds [512 x i8], [512 x i8]* %217, i32 0, i32 0
  %219 = call i32 (i8*, i8*, ...) @sprintf(i8* %218, i8* getelementptr inbounds ([20 x i8], [20 x i8]* @.str.14, i32 0, i32 0)) #10
  call void @_Z7logMessP7requesth(%struct.request* %4, i8 zeroext 2)
  %220 = getelementptr inbounds %struct.request, %struct.request* %4, i32 0, i32 4
  %221 = load i32, i32* %220, align 4
  %222 = getelementptr inbounds %struct.request, %struct.request* %4, i32 0, i32 20
  %223 = bitcast %union.anon.2* %222 to %struct.tftperror*
  %224 = bitcast %struct.tftperror* %223 to i8*
  %225 = getelementptr inbounds %struct.request, %struct.request* %4, i32 0, i32 20
  %226 = bitcast %union.anon.2* %225 to %struct.tftperror*
  %227 = getelementptr inbounds %struct.tftperror, %struct.tftperror* %226, i32 0, i32 2
  %228 = getelementptr inbounds [512 x i8], [512 x i8]* %227, i32 0, i32 0
  %229 = call i64 @strlen(i8* %228) #11
  %230 = add i64 %229, 5
  %231 = getelementptr inbounds %struct.request, %struct.request* %4, i32 0, i32 18
  %232 = bitcast %struct.sockaddr_in* %231 to %struct.sockaddr*
  %233 = getelementptr inbounds %struct.request, %struct.request* %4, i32 0, i32 19
  %234 = load i32, i32* %233, align 8
  %235 = call i64 @sendto(i32 %221, i8* %224, i64 %230, i32 0, %struct.sockaddr* %232, i32 %234)
  %236 = getelementptr inbounds %struct.request, %struct.request* %4, i32 0, i32 6
  store i8 -1, i8* %236, align 1
  br label %2810

; <label>:237:                                    ; preds = %198, %190
  br label %238

; <label>:238:                                    ; preds = %237
  br label %246

; <label>:239:                                    ; preds = %84, %67
  %240 = getelementptr inbounds %struct.request, %struct.request* %4, i32 0, i32 20
  %241 = bitcast %union.anon.2* %240 to %struct.tftperror*
  %242 = getelementptr inbounds %struct.tftperror, %struct.tftperror* %241, i32 0, i32 2
  %243 = getelementptr inbounds [512 x i8], [512 x i8]* %242, i32 0, i32 0
  %244 = call i32 (i8*, i8*, ...) @sprintf(i8* %243, i8* getelementptr inbounds ([20 x i8], [20 x i8]* @.str.15, i32 0, i32 0)) #10
  call void @_Z7logMessP7requesth(%struct.request* %4, i8 zeroext 1)
  %245 = getelementptr inbounds %struct.request, %struct.request* %4, i32 0, i32 6
  store i8 -1, i8* %245, align 1
  br label %2810

; <label>:246:                                    ; preds = %238
  %247 = getelementptr inbounds %struct.request, %struct.request* %4, i32 0, i32 22
  store i16 512, i16* %247, align 4
  %248 = load i16, i16* @timeout, align 2
  %249 = getelementptr inbounds %struct.request, %struct.request* %4, i32 0, i32 23
  store i16 %248, i16* %249, align 2
  %250 = call i64 @time(i64* null) #10
  %251 = getelementptr inbounds %struct.request, %struct.request* %4, i32 0, i32 23
  %252 = load i16, i16* %251, align 2
  %253 = zext i16 %252 to i64
  %254 = add nsw i64 %250, %253
  %255 = getelementptr inbounds %struct.request, %struct.request* %4, i32 0, i32 2
  store i64 %254, i64* %255, align 8
  store i8 0, i8* %8, align 1
  %256 = call i32 @socket(i32 2, i32 2, i32 17) #10
  %257 = getelementptr inbounds %struct.request, %struct.request* %4, i32 0, i32 3
  store i32 %256, i32* %257, align 8
  %258 = getelementptr inbounds %struct.request, %struct.request* %4, i32 0, i32 3
  %259 = load i32, i32* %258, align 8
  %260 = icmp eq i32 %259, -1
  br i1 %260, label %261, label %292

; <label>:261:                                    ; preds = %246
  %262 = call zeroext i16 @htons(i16 zeroext 5) #13
  %263 = getelementptr inbounds %struct.request, %struct.request* %4, i32 0, i32 20
  %264 = bitcast %union.anon.2* %263 to %struct.tftperror*
  %265 = getelementptr inbounds %struct.tftperror, %struct.tftperror* %264, i32 0, i32 0
  store i16 %262, i16* %265, align 4
  %266 = call zeroext i16 @htons(i16 zeroext 0) #13
  %267 = getelementptr inbounds %struct.request, %struct.request* %4, i32 0, i32 20
  %268 = bitcast %union.anon.2* %267 to %struct.tftperror*
  %269 = getelementptr inbounds %struct.tftperror, %struct.tftperror* %268, i32 0, i32 1
  store i16 %266, i16* %269, align 2
  %270 = getelementptr inbounds %struct.request, %struct.request* %4, i32 0, i32 20
  %271 = bitcast %union.anon.2* %270 to %struct.tftperror*
  %272 = getelementptr inbounds %struct.tftperror, %struct.tftperror* %271, i32 0, i32 2
  %273 = getelementptr inbounds [512 x i8], [512 x i8]* %272, i32 0, i32 0
  %274 = call i8* @strcpy(i8* %273, i8* getelementptr inbounds ([29 x i8], [29 x i8]* @.str.16, i32 0, i32 0)) #10
  %275 = getelementptr inbounds %struct.request, %struct.request* %4, i32 0, i32 4
  %276 = load i32, i32* %275, align 4
  %277 = getelementptr inbounds %struct.request, %struct.request* %4, i32 0, i32 20
  %278 = bitcast %union.anon.2* %277 to %struct.tftperror*
  %279 = bitcast %struct.tftperror* %278 to i8*
  %280 = getelementptr inbounds %struct.request, %struct.request* %4, i32 0, i32 20
  %281 = bitcast %union.anon.2* %280 to %struct.tftperror*
  %282 = getelementptr inbounds %struct.tftperror, %struct.tftperror* %281, i32 0, i32 2
  %283 = getelementptr inbounds [512 x i8], [512 x i8]* %282, i32 0, i32 0
  %284 = call i64 @strlen(i8* %283) #11
  %285 = add i64 %284, 5
  %286 = getelementptr inbounds %struct.request, %struct.request* %4, i32 0, i32 18
  %287 = bitcast %struct.sockaddr_in* %286 to %struct.sockaddr*
  %288 = getelementptr inbounds %struct.request, %struct.request* %4, i32 0, i32 19
  %289 = load i32, i32* %288, align 8
  %290 = call i64 @sendto(i32 %276, i8* %279, i64 %285, i32 0, %struct.sockaddr* %287, i32 %289)
  call void @_Z7logMessP7requesth(%struct.request* %4, i8 zeroext 1)
  %291 = getelementptr inbounds %struct.request, %struct.request* %4, i32 0, i32 6
  store i8 -1, i8* %291, align 1
  br label %2810

; <label>:292:                                    ; preds = %246
  %293 = getelementptr inbounds %struct.sockaddr_in, %struct.sockaddr_in* %9, i32 0, i32 0
  store i16 2, i16* %293, align 4
  %294 = getelementptr inbounds %struct.request, %struct.request* %4, i32 0, i32 5
  %295 = load i8, i8* %294, align 8
  %296 = zext i8 %295 to i64
  %297 = getelementptr inbounds [8 x %struct.tftpConnType], [8 x %struct.tftpConnType]* getelementptr inbounds (%struct.data1, %struct.data1* @network, i32 0, i32 0), i64 0, i64 %296
  %298 = getelementptr inbounds %struct.tftpConnType, %struct.tftpConnType* %297, i32 0, i32 2
  %299 = load i32, i32* %298, align 4
  %300 = getelementptr inbounds %struct.sockaddr_in, %struct.sockaddr_in* %9, i32 0, i32 2
  %301 = getelementptr inbounds %struct.in_addr, %struct.in_addr* %300, i32 0, i32 0
  store i32 %299, i32* %301, align 4
  %302 = load i32, i32* getelementptr inbounds (%struct.data2, %struct.data2* @cfig, i32 0, i32 9), align 4
  %303 = icmp ne i32 %302, 0
  br i1 %303, label %304, label %358

; <label>:304:                                    ; preds = %292
  %305 = load i32, i32* getelementptr inbounds (%struct.data2, %struct.data2* @cfig, i32 0, i32 9), align 4
  %306 = trunc i32 %305 to i16
  store i16 %306, i16* %10, align 2
  br label %307

; <label>:307:                                    ; preds = %354, %304
  %308 = load i16, i16* %10, align 2
  %309 = call zeroext i16 @htons(i16 zeroext %308) #13
  %310 = getelementptr inbounds %struct.sockaddr_in, %struct.sockaddr_in* %9, i32 0, i32 1
  store i16 %309, i16* %310, align 2
  %311 = load i16, i16* %10, align 2
  %312 = zext i16 %311 to i32
  %313 = load i32, i32* getelementptr inbounds (%struct.data2, %struct.data2* @cfig, i32 0, i32 10), align 8
  %314 = icmp sgt i32 %312, %313
  br i1 %314, label %315, label %346

; <label>:315:                                    ; preds = %307
  %316 = call zeroext i16 @htons(i16 zeroext 5) #13
  %317 = getelementptr inbounds %struct.request, %struct.request* %4, i32 0, i32 20
  %318 = bitcast %union.anon.2* %317 to %struct.tftperror*
  %319 = getelementptr inbounds %struct.tftperror, %struct.tftperror* %318, i32 0, i32 0
  store i16 %316, i16* %319, align 4
  %320 = call zeroext i16 @htons(i16 zeroext 0) #13
  %321 = getelementptr inbounds %struct.request, %struct.request* %4, i32 0, i32 20
  %322 = bitcast %union.anon.2* %321 to %struct.tftperror*
  %323 = getelementptr inbounds %struct.tftperror, %struct.tftperror* %322, i32 0, i32 1
  store i16 %320, i16* %323, align 2
  %324 = getelementptr inbounds %struct.request, %struct.request* %4, i32 0, i32 20
  %325 = bitcast %union.anon.2* %324 to %struct.tftperror*
  %326 = getelementptr inbounds %struct.tftperror, %struct.tftperror* %325, i32 0, i32 2
  %327 = getelementptr inbounds [512 x i8], [512 x i8]* %326, i32 0, i32 0
  %328 = call i8* @strcpy(i8* %327, i8* getelementptr inbounds ([16 x i8], [16 x i8]* @.str.17, i32 0, i32 0)) #10
  %329 = getelementptr inbounds %struct.request, %struct.request* %4, i32 0, i32 4
  %330 = load i32, i32* %329, align 4
  %331 = getelementptr inbounds %struct.request, %struct.request* %4, i32 0, i32 20
  %332 = bitcast %union.anon.2* %331 to %struct.tftperror*
  %333 = bitcast %struct.tftperror* %332 to i8*
  %334 = getelementptr inbounds %struct.request, %struct.request* %4, i32 0, i32 20
  %335 = bitcast %union.anon.2* %334 to %struct.tftperror*
  %336 = getelementptr inbounds %struct.tftperror, %struct.tftperror* %335, i32 0, i32 2
  %337 = getelementptr inbounds [512 x i8], [512 x i8]* %336, i32 0, i32 0
  %338 = call i64 @strlen(i8* %337) #11
  %339 = add i64 %338, 5
  %340 = getelementptr inbounds %struct.request, %struct.request* %4, i32 0, i32 18
  %341 = bitcast %struct.sockaddr_in* %340 to %struct.sockaddr*
  %342 = getelementptr inbounds %struct.request, %struct.request* %4, i32 0, i32 19
  %343 = load i32, i32* %342, align 8
  %344 = call i64 @sendto(i32 %330, i8* %333, i64 %339, i32 0, %struct.sockaddr* %341, i32 %343)
  call void @_Z7logMessP7requesth(%struct.request* %4, i8 zeroext 1)
  %345 = getelementptr inbounds %struct.request, %struct.request* %4, i32 0, i32 6
  store i8 -1, i8* %345, align 1
  br label %357

; <label>:346:                                    ; preds = %307
  %347 = getelementptr inbounds %struct.request, %struct.request* %4, i32 0, i32 3
  %348 = load i32, i32* %347, align 8
  %349 = bitcast %struct.sockaddr_in* %9 to %struct.sockaddr*
  %350 = call i32 @bind(i32 %348, %struct.sockaddr* %349, i32 16) #10
  %351 = icmp eq i32 %350, -1
  br i1 %351, label %352, label %353

; <label>:352:                                    ; preds = %346
  br label %354

; <label>:353:                                    ; preds = %346
  br label %357

; <label>:354:                                    ; preds = %352
  %355 = load i16, i16* %10, align 2
  %356 = add i16 %355, 1
  store i16 %356, i16* %10, align 2
  br label %307

; <label>:357:                                    ; preds = %353, %315
  br label %389

; <label>:358:                                    ; preds = %292
  %359 = getelementptr inbounds %struct.sockaddr_in, %struct.sockaddr_in* %9, i32 0, i32 1
  store i16 0, i16* %359, align 2
  %360 = getelementptr inbounds %struct.request, %struct.request* %4, i32 0, i32 3
  %361 = load i32, i32* %360, align 8
  %362 = bitcast %struct.sockaddr_in* %9 to %struct.sockaddr*
  %363 = call i32 @bind(i32 %361, %struct.sockaddr* %362, i32 16) #10
  %364 = icmp eq i32 %363, -1
  br i1 %364, label %365, label %388

; <label>:365:                                    ; preds = %358
  %366 = getelementptr inbounds %struct.request, %struct.request* %4, i32 0, i32 20
  %367 = bitcast %union.anon.2* %366 to %struct.tftperror*
  %368 = getelementptr inbounds %struct.tftperror, %struct.tftperror* %367, i32 0, i32 2
  %369 = getelementptr inbounds [512 x i8], [512 x i8]* %368, i32 0, i32 0
  %370 = call i8* @strcpy(i8* %369, i8* getelementptr inbounds ([22 x i8], [22 x i8]* @.str.18, i32 0, i32 0)) #10
  %371 = getelementptr inbounds %struct.request, %struct.request* %4, i32 0, i32 4
  %372 = load i32, i32* %371, align 4
  %373 = getelementptr inbounds %struct.request, %struct.request* %4, i32 0, i32 20
  %374 = bitcast %union.anon.2* %373 to %struct.tftperror*
  %375 = bitcast %struct.tftperror* %374 to i8*
  %376 = getelementptr inbounds %struct.request, %struct.request* %4, i32 0, i32 20
  %377 = bitcast %union.anon.2* %376 to %struct.tftperror*
  %378 = getelementptr inbounds %struct.tftperror, %struct.tftperror* %377, i32 0, i32 2
  %379 = getelementptr inbounds [512 x i8], [512 x i8]* %378, i32 0, i32 0
  %380 = call i64 @strlen(i8* %379) #11
  %381 = add i64 %380, 5
  %382 = getelementptr inbounds %struct.request, %struct.request* %4, i32 0, i32 18
  %383 = bitcast %struct.sockaddr_in* %382 to %struct.sockaddr*
  %384 = getelementptr inbounds %struct.request, %struct.request* %4, i32 0, i32 19
  %385 = load i32, i32* %384, align 8
  %386 = call i64 @sendto(i32 %372, i8* %375, i64 %381, i32 0, %struct.sockaddr* %383, i32 %385)
  call void @_Z7logMessP7requesth(%struct.request* %4, i8 zeroext 1)
  %387 = getelementptr inbounds %struct.request, %struct.request* %4, i32 0, i32 6
  store i8 -1, i8* %387, align 1
  br label %388

; <label>:388:                                    ; preds = %365, %358
  br label %389

; <label>:389:                                    ; preds = %388, %357
  %390 = getelementptr inbounds %struct.request, %struct.request* %4, i32 0, i32 6
  %391 = load i8, i8* %390, align 1
  %392 = zext i8 %391 to i32
  %393 = icmp sge i32 %392, 3
  br i1 %393, label %394, label %395

; <label>:394:                                    ; preds = %389
  br label %2810

; <label>:395:                                    ; preds = %389
  %396 = getelementptr inbounds %struct.request, %struct.request* %4, i32 0, i32 3
  %397 = load i32, i32* %396, align 8
  %398 = getelementptr inbounds %struct.request, %struct.request* %4, i32 0, i32 18
  %399 = bitcast %struct.sockaddr_in* %398 to %struct.sockaddr*
  %400 = getelementptr inbounds %struct.request, %struct.request* %4, i32 0, i32 19
  %401 = load i32, i32* %400, align 8
  %402 = call i32 @connect(i32 %397, %struct.sockaddr* %399, i32 %401)
  %403 = icmp eq i32 %402, -1
  br i1 %403, label %404, label %435

; <label>:404:                                    ; preds = %395
  %405 = call zeroext i16 @htons(i16 zeroext 5) #13
  %406 = getelementptr inbounds %struct.request, %struct.request* %4, i32 0, i32 20
  %407 = bitcast %union.anon.2* %406 to %struct.tftperror*
  %408 = getelementptr inbounds %struct.tftperror, %struct.tftperror* %407, i32 0, i32 0
  store i16 %405, i16* %408, align 4
  %409 = call zeroext i16 @htons(i16 zeroext 0) #13
  %410 = getelementptr inbounds %struct.request, %struct.request* %4, i32 0, i32 20
  %411 = bitcast %union.anon.2* %410 to %struct.tftperror*
  %412 = getelementptr inbounds %struct.tftperror, %struct.tftperror* %411, i32 0, i32 1
  store i16 %409, i16* %412, align 2
  %413 = getelementptr inbounds %struct.request, %struct.request* %4, i32 0, i32 20
  %414 = bitcast %union.anon.2* %413 to %struct.tftperror*
  %415 = getelementptr inbounds %struct.tftperror, %struct.tftperror* %414, i32 0, i32 2
  %416 = getelementptr inbounds [512 x i8], [512 x i8]* %415, i32 0, i32 0
  %417 = call i8* @strcpy(i8* %416, i8* getelementptr inbounds ([15 x i8], [15 x i8]* @.str.19, i32 0, i32 0)) #10
  %418 = getelementptr inbounds %struct.request, %struct.request* %4, i32 0, i32 4
  %419 = load i32, i32* %418, align 4
  %420 = getelementptr inbounds %struct.request, %struct.request* %4, i32 0, i32 20
  %421 = bitcast %union.anon.2* %420 to %struct.tftperror*
  %422 = bitcast %struct.tftperror* %421 to i8*
  %423 = getelementptr inbounds %struct.request, %struct.request* %4, i32 0, i32 20
  %424 = bitcast %union.anon.2* %423 to %struct.tftperror*
  %425 = getelementptr inbounds %struct.tftperror, %struct.tftperror* %424, i32 0, i32 2
  %426 = getelementptr inbounds [512 x i8], [512 x i8]* %425, i32 0, i32 0
  %427 = call i64 @strlen(i8* %426) #11
  %428 = add i64 %427, 5
  %429 = getelementptr inbounds %struct.request, %struct.request* %4, i32 0, i32 18
  %430 = bitcast %struct.sockaddr_in* %429 to %struct.sockaddr*
  %431 = getelementptr inbounds %struct.request, %struct.request* %4, i32 0, i32 19
  %432 = load i32, i32* %431, align 8
  %433 = call i64 @sendto(i32 %419, i8* %422, i64 %428, i32 0, %struct.sockaddr* %430, i32 %432)
  call void @_Z7logMessP7requesth(%struct.request* %4, i8 zeroext 1)
  %434 = getelementptr inbounds %struct.request, %struct.request* %4, i32 0, i32 6
  store i8 -1, i8* %434, align 1
  br label %2810

; <label>:435:                                    ; preds = %395
  %436 = getelementptr inbounds %struct.request, %struct.request* %4, i32 0, i32 21
  %437 = bitcast %union.anon.3* %436 to %struct.message*
  %438 = getelementptr inbounds %struct.message, %struct.message* %437, i32 0, i32 1
  %439 = getelementptr inbounds [514 x i8], [514 x i8]* %438, i32 0, i32 0
  store i8* %439, i8** %11, align 8
  %440 = load i8*, i8** %11, align 8
  %441 = getelementptr inbounds %struct.request, %struct.request* %4, i32 0, i32 15
  %442 = load i32, i32* %441, align 4
  %443 = sub nsw i32 %442, 3
  %444 = sext i32 %443 to i64
  %445 = getelementptr inbounds i8, i8* %440, i64 %444
  store i8 0, i8* %445, align 1
  %446 = load i8*, i8** %11, align 8
  %447 = getelementptr inbounds %struct.request, %struct.request* %4, i32 0, i32 9
  store i8* %446, i8** %447, align 8
  %448 = getelementptr inbounds %struct.request, %struct.request* %4, i32 0, i32 9
  %449 = load i8*, i8** %448, align 8
  %450 = call i64 @strlen(i8* %449) #11
  %451 = icmp ne i64 %450, 0
  br i1 %451, label %452, label %457

; <label>:452:                                    ; preds = %435
  %453 = getelementptr inbounds %struct.request, %struct.request* %4, i32 0, i32 9
  %454 = load i8*, i8** %453, align 8
  %455 = call i64 @strlen(i8* %454) #11
  %456 = icmp ugt i64 %455, 255
  br i1 %456, label %457, label %484

; <label>:457:                                    ; preds = %452, %435
  %458 = call zeroext i16 @htons(i16 zeroext 5) #13
  %459 = getelementptr inbounds %struct.request, %struct.request* %4, i32 0, i32 20
  %460 = bitcast %union.anon.2* %459 to %struct.tftperror*
  %461 = getelementptr inbounds %struct.tftperror, %struct.tftperror* %460, i32 0, i32 0
  store i16 %458, i16* %461, align 4
  %462 = call zeroext i16 @htons(i16 zeroext 0) #13
  %463 = getelementptr inbounds %struct.request, %struct.request* %4, i32 0, i32 20
  %464 = bitcast %union.anon.2* %463 to %struct.tftperror*
  %465 = getelementptr inbounds %struct.tftperror, %struct.tftperror* %464, i32 0, i32 1
  store i16 %462, i16* %465, align 2
  %466 = getelementptr inbounds %struct.request, %struct.request* %4, i32 0, i32 20
  %467 = bitcast %union.anon.2* %466 to %struct.tftperror*
  %468 = getelementptr inbounds %struct.tftperror, %struct.tftperror* %467, i32 0, i32 2
  %469 = getelementptr inbounds [512 x i8], [512 x i8]* %468, i32 0, i32 0
  %470 = call i8* @strcpy(i8* %469, i8* getelementptr inbounds ([44 x i8], [44 x i8]* @.str.20, i32 0, i32 0)) #10
  %471 = getelementptr inbounds %struct.request, %struct.request* %4, i32 0, i32 3
  %472 = load i32, i32* %471, align 8
  %473 = getelementptr inbounds %struct.request, %struct.request* %4, i32 0, i32 20
  %474 = bitcast %union.anon.2* %473 to %struct.tftperror*
  %475 = bitcast %struct.tftperror* %474 to i8*
  %476 = getelementptr inbounds %struct.request, %struct.request* %4, i32 0, i32 20
  %477 = bitcast %union.anon.2* %476 to %struct.tftperror*
  %478 = getelementptr inbounds %struct.tftperror, %struct.tftperror* %477, i32 0, i32 2
  %479 = getelementptr inbounds [512 x i8], [512 x i8]* %478, i32 0, i32 0
  %480 = call i64 @strlen(i8* %479) #11
  %481 = add i64 %480, 5
  %482 = call i64 @send(i32 %472, i8* %475, i64 %481, i32 0)
  %483 = getelementptr inbounds %struct.request, %struct.request* %4, i32 0, i32 6
  store i8 -1, i8* %483, align 1
  call void @_Z7logMessP7requesth(%struct.request* %4, i8 zeroext 1)
  br label %2810

; <label>:484:                                    ; preds = %452
  %485 = load i8*, i8** %11, align 8
  %486 = call i64 @strlen(i8* %485) #11
  %487 = add i64 %486, 1
  %488 = load i8*, i8** %11, align 8
  %489 = getelementptr inbounds i8, i8* %488, i64 %487
  store i8* %489, i8** %11, align 8
  %490 = load i8*, i8** %11, align 8
  %491 = getelementptr inbounds %struct.request, %struct.request* %4, i32 0, i32 10
  store i8* %490, i8** %491, align 8
  %492 = getelementptr inbounds %struct.request, %struct.request* %4, i32 0, i32 10
  %493 = load i8*, i8** %492, align 8
  %494 = call i64 @strlen(i8* %493) #11
  %495 = icmp ne i64 %494, 0
  br i1 %495, label %496, label %501

; <label>:496:                                    ; preds = %484
  %497 = getelementptr inbounds %struct.request, %struct.request* %4, i32 0, i32 10
  %498 = load i8*, i8** %497, align 8
  %499 = call i64 @strlen(i8* %498) #11
  %500 = icmp ugt i64 %499, 25
  br i1 %500, label %501, label %528

; <label>:501:                                    ; preds = %496, %484
  %502 = call zeroext i16 @htons(i16 zeroext 5) #13
  %503 = getelementptr inbounds %struct.request, %struct.request* %4, i32 0, i32 20
  %504 = bitcast %union.anon.2* %503 to %struct.tftperror*
  %505 = getelementptr inbounds %struct.tftperror, %struct.tftperror* %504, i32 0, i32 0
  store i16 %502, i16* %505, align 4
  %506 = call zeroext i16 @htons(i16 zeroext 0) #13
  %507 = getelementptr inbounds %struct.request, %struct.request* %4, i32 0, i32 20
  %508 = bitcast %union.anon.2* %507 to %struct.tftperror*
  %509 = getelementptr inbounds %struct.tftperror, %struct.tftperror* %508, i32 0, i32 1
  store i16 %506, i16* %509, align 2
  %510 = getelementptr inbounds %struct.request, %struct.request* %4, i32 0, i32 20
  %511 = bitcast %union.anon.2* %510 to %struct.tftperror*
  %512 = getelementptr inbounds %struct.tftperror, %struct.tftperror* %511, i32 0, i32 2
  %513 = getelementptr inbounds [512 x i8], [512 x i8]* %512, i32 0, i32 0
  %514 = call i8* @strcpy(i8* %513, i8* getelementptr inbounds ([40 x i8], [40 x i8]* @.str.21, i32 0, i32 0)) #10
  %515 = getelementptr inbounds %struct.request, %struct.request* %4, i32 0, i32 3
  %516 = load i32, i32* %515, align 8
  %517 = getelementptr inbounds %struct.request, %struct.request* %4, i32 0, i32 20
  %518 = bitcast %union.anon.2* %517 to %struct.tftperror*
  %519 = bitcast %struct.tftperror* %518 to i8*
  %520 = getelementptr inbounds %struct.request, %struct.request* %4, i32 0, i32 20
  %521 = bitcast %union.anon.2* %520 to %struct.tftperror*
  %522 = getelementptr inbounds %struct.tftperror, %struct.tftperror* %521, i32 0, i32 2
  %523 = getelementptr inbounds [512 x i8], [512 x i8]* %522, i32 0, i32 0
  %524 = call i64 @strlen(i8* %523) #11
  %525 = add i64 %524, 5
  %526 = call i64 @send(i32 %516, i8* %519, i64 %525, i32 0)
  %527 = getelementptr inbounds %struct.request, %struct.request* %4, i32 0, i32 6
  store i8 -1, i8* %527, align 1
  call void @_Z7logMessP7requesth(%struct.request* %4, i8 zeroext 1)
  br label %2810

; <label>:528:                                    ; preds = %496
  %529 = load i8*, i8** %11, align 8
  %530 = call i64 @strlen(i8* %529) #11
  %531 = add i64 %530, 1
  %532 = load i8*, i8** %11, align 8
  %533 = getelementptr inbounds i8, i8* %532, i64 %531
  store i8* %533, i8** %11, align 8
  store i32 0, i32* %12, align 4
  br label %534

; <label>:534:                                    ; preds = %560, %528
  %535 = load i32, i32* %12, align 4
  %536 = zext i32 %535 to i64
  %537 = getelementptr inbounds %struct.request, %struct.request* %4, i32 0, i32 9
  %538 = load i8*, i8** %537, align 8
  %539 = call i64 @strlen(i8* %538) #11
  %540 = icmp ult i64 %536, %539
  br i1 %540, label %541, label %563

; <label>:541:                                    ; preds = %534
  %542 = getelementptr inbounds %struct.request, %struct.request* %4, i32 0, i32 9
  %543 = load i8*, i8** %542, align 8
  %544 = load i32, i32* %12, align 4
  %545 = zext i32 %544 to i64
  %546 = getelementptr inbounds i8, i8* %543, i64 %545
  %547 = load i8, i8* %546, align 1
  %548 = sext i8 %547 to i32
  %549 = load i8, i8* @notFileSep, align 1
  %550 = sext i8 %549 to i32
  %551 = icmp eq i32 %548, %550
  br i1 %551, label %552, label %559

; <label>:552:                                    ; preds = %541
  %553 = load i8, i8* @fileSep, align 1
  %554 = getelementptr inbounds %struct.request, %struct.request* %4, i32 0, i32 9
  %555 = load i8*, i8** %554, align 8
  %556 = load i32, i32* %12, align 4
  %557 = zext i32 %556 to i64
  %558 = getelementptr inbounds i8, i8* %555, i64 %557
  store i8 %553, i8* %558, align 1
  br label %559

; <label>:559:                                    ; preds = %552, %541
  br label %560

; <label>:560:                                    ; preds = %559
  %561 = load i32, i32* %12, align 4
  %562 = add i32 %561, 1
  store i32 %562, i32* %12, align 4
  br label %534

; <label>:563:                                    ; preds = %534
  store i8 46, i8* getelementptr inbounds ([256 x i8], [256 x i8]* @tempbuff, i64 0, i64 0), align 16
  store i8 46, i8* getelementptr inbounds ([256 x i8], [256 x i8]* @tempbuff, i64 0, i64 1), align 1
  %564 = load i8, i8* @fileSep, align 1
  store i8 %564, i8* getelementptr inbounds ([256 x i8], [256 x i8]* @tempbuff, i64 0, i64 2), align 2
  store i8 0, i8* getelementptr inbounds ([256 x i8], [256 x i8]* @tempbuff, i64 0, i64 3), align 1
  %565 = getelementptr inbounds %struct.request, %struct.request* %4, i32 0, i32 9
  %566 = load i8*, i8** %565, align 8
  %567 = call i8* @strstr(i8* %566, i8* getelementptr inbounds ([256 x i8], [256 x i8]* @tempbuff, i32 0, i32 0)) #11
  %568 = icmp ne i8* %567, null
  br i1 %568, label %569, label %596

; <label>:569:                                    ; preds = %563
  %570 = call zeroext i16 @htons(i16 zeroext 5) #13
  %571 = getelementptr inbounds %struct.request, %struct.request* %4, i32 0, i32 20
  %572 = bitcast %union.anon.2* %571 to %struct.tftperror*
  %573 = getelementptr inbounds %struct.tftperror, %struct.tftperror* %572, i32 0, i32 0
  store i16 %570, i16* %573, align 4
  %574 = call zeroext i16 @htons(i16 zeroext 2) #13
  %575 = getelementptr inbounds %struct.request, %struct.request* %4, i32 0, i32 20
  %576 = bitcast %union.anon.2* %575 to %struct.tftperror*
  %577 = getelementptr inbounds %struct.tftperror, %struct.tftperror* %576, i32 0, i32 1
  store i16 %574, i16* %577, align 2
  %578 = getelementptr inbounds %struct.request, %struct.request* %4, i32 0, i32 20
  %579 = bitcast %union.anon.2* %578 to %struct.tftperror*
  %580 = getelementptr inbounds %struct.tftperror, %struct.tftperror* %579, i32 0, i32 2
  %581 = getelementptr inbounds [512 x i8], [512 x i8]* %580, i32 0, i32 0
  %582 = call i8* @strcpy(i8* %581, i8* getelementptr inbounds ([17 x i8], [17 x i8]* @.str.22, i32 0, i32 0)) #10
  %583 = getelementptr inbounds %struct.request, %struct.request* %4, i32 0, i32 3
  %584 = load i32, i32* %583, align 8
  %585 = getelementptr inbounds %struct.request, %struct.request* %4, i32 0, i32 20
  %586 = bitcast %union.anon.2* %585 to %struct.tftperror*
  %587 = bitcast %struct.tftperror* %586 to i8*
  %588 = getelementptr inbounds %struct.request, %struct.request* %4, i32 0, i32 20
  %589 = bitcast %union.anon.2* %588 to %struct.tftperror*
  %590 = getelementptr inbounds %struct.tftperror, %struct.tftperror* %589, i32 0, i32 2
  %591 = getelementptr inbounds [512 x i8], [512 x i8]* %590, i32 0, i32 0
  %592 = call i64 @strlen(i8* %591) #11
  %593 = add i64 %592, 5
  %594 = call i64 @send(i32 %584, i8* %587, i64 %593, i32 0)
  call void @_Z7logMessP7requesth(%struct.request* %4, i8 zeroext 1)
  %595 = getelementptr inbounds %struct.request, %struct.request* %4, i32 0, i32 6
  store i8 -1, i8* %595, align 1
  br label %2810

; <label>:596:                                    ; preds = %563
  %597 = getelementptr inbounds %struct.request, %struct.request* %4, i32 0, i32 9
  %598 = load i8*, i8** %597, align 8
  %599 = getelementptr inbounds i8, i8* %598, i64 0
  %600 = load i8, i8* %599, align 1
  %601 = sext i8 %600 to i32
  %602 = load i8, i8* @fileSep, align 1
  %603 = sext i8 %602 to i32
  %604 = icmp eq i32 %601, %603
  br i1 %604, label %605, label %609

; <label>:605:                                    ; preds = %596
  %606 = getelementptr inbounds %struct.request, %struct.request* %4, i32 0, i32 9
  %607 = load i8*, i8** %606, align 8
  %608 = getelementptr inbounds i8, i8* %607, i32 1
  store i8* %608, i8** %606, align 8
  br label %609

; <label>:609:                                    ; preds = %605, %596
  %610 = load i8, i8* getelementptr inbounds (%struct.data2, %struct.data2* @cfig, i32 0, i32 1, i64 0, i32 0, i64 0), align 8
  %611 = icmp ne i8 %610, 0
  br i1 %611, label %655, label %612

; <label>:612:                                    ; preds = %609
  %613 = call i64 @strlen(i8* getelementptr inbounds (%struct.data2, %struct.data2* @cfig, i32 0, i32 1, i64 0, i32 1, i32 0)) #11
  %614 = getelementptr inbounds %struct.request, %struct.request* %4, i32 0, i32 9
  %615 = load i8*, i8** %614, align 8
  %616 = call i64 @strlen(i8* %615) #11
  %617 = add i64 %613, %616
  %618 = icmp uge i64 %617, 256
  br i1 %618, label %619, label %646

; <label>:619:                                    ; preds = %612
  %620 = call zeroext i16 @htons(i16 zeroext 5) #13
  %621 = getelementptr inbounds %struct.request, %struct.request* %4, i32 0, i32 20
  %622 = bitcast %union.anon.2* %621 to %struct.tftperror*
  %623 = getelementptr inbounds %struct.tftperror, %struct.tftperror* %622, i32 0, i32 0
  store i16 %620, i16* %623, align 4
  %624 = call zeroext i16 @htons(i16 zeroext 2) #13
  %625 = getelementptr inbounds %struct.request, %struct.request* %4, i32 0, i32 20
  %626 = bitcast %union.anon.2* %625 to %struct.tftperror*
  %627 = getelementptr inbounds %struct.tftperror, %struct.tftperror* %626, i32 0, i32 1
  store i16 %624, i16* %627, align 2
  %628 = getelementptr inbounds %struct.request, %struct.request* %4, i32 0, i32 20
  %629 = bitcast %union.anon.2* %628 to %struct.tftperror*
  %630 = getelementptr inbounds %struct.tftperror, %struct.tftperror* %629, i32 0, i32 2
  %631 = getelementptr inbounds [512 x i8], [512 x i8]* %630, i32 0, i32 0
  %632 = call i32 (i8*, i8*, ...) @sprintf(i8* %631, i8* getelementptr inbounds ([19 x i8], [19 x i8]* @.str.23, i32 0, i32 0)) #10
  %633 = getelementptr inbounds %struct.request, %struct.request* %4, i32 0, i32 3
  %634 = load i32, i32* %633, align 8
  %635 = getelementptr inbounds %struct.request, %struct.request* %4, i32 0, i32 20
  %636 = bitcast %union.anon.2* %635 to %struct.tftperror*
  %637 = bitcast %struct.tftperror* %636 to i8*
  %638 = getelementptr inbounds %struct.request, %struct.request* %4, i32 0, i32 20
  %639 = bitcast %union.anon.2* %638 to %struct.tftperror*
  %640 = getelementptr inbounds %struct.tftperror, %struct.tftperror* %639, i32 0, i32 2
  %641 = getelementptr inbounds [512 x i8], [512 x i8]* %640, i32 0, i32 0
  %642 = call i64 @strlen(i8* %641) #11
  %643 = add i64 %642, 5
  %644 = call i64 @send(i32 %634, i8* %637, i64 %643, i32 0)
  call void @_Z7logMessP7requesth(%struct.request* %4, i8 zeroext 1)
  %645 = getelementptr inbounds %struct.request, %struct.request* %4, i32 0, i32 6
  store i8 -1, i8* %645, align 1
  br label %2810

; <label>:646:                                    ; preds = %612
  %647 = getelementptr inbounds %struct.request, %struct.request* %4, i32 0, i32 7
  %648 = getelementptr inbounds [256 x i8], [256 x i8]* %647, i32 0, i32 0
  %649 = call i8* @strcpy(i8* %648, i8* getelementptr inbounds (%struct.data2, %struct.data2* @cfig, i32 0, i32 1, i64 0, i32 1, i32 0)) #10
  %650 = getelementptr inbounds %struct.request, %struct.request* %4, i32 0, i32 7
  %651 = getelementptr inbounds [256 x i8], [256 x i8]* %650, i32 0, i32 0
  %652 = getelementptr inbounds %struct.request, %struct.request* %4, i32 0, i32 9
  %653 = load i8*, i8** %652, align 8
  %654 = call i8* @strcat(i8* %651, i8* %653) #10
  br label %813

; <label>:655:                                    ; preds = %609
  %656 = getelementptr inbounds %struct.request, %struct.request* %4, i32 0, i32 9
  %657 = load i8*, i8** %656, align 8
  %658 = load i8, i8* @fileSep, align 1
  %659 = sext i8 %658 to i32
  %660 = call i8* @strchr(i8* %657, i32 %659) #11
  store i8* %660, i8** %13, align 8
  %661 = load i8*, i8** %13, align 8
  %662 = icmp ne i8* %661, null
  br i1 %662, label %663, label %667

; <label>:663:                                    ; preds = %655
  %664 = load i8*, i8** %13, align 8
  store i8 0, i8* %664, align 1
  %665 = load i8*, i8** %13, align 8
  %666 = getelementptr inbounds i8, i8* %665, i32 1
  store i8* %666, i8** %13, align 8
  br label %694

; <label>:667:                                    ; preds = %655
  %668 = call zeroext i16 @htons(i16 zeroext 5) #13
  %669 = getelementptr inbounds %struct.request, %struct.request* %4, i32 0, i32 20
  %670 = bitcast %union.anon.2* %669 to %struct.tftperror*
  %671 = getelementptr inbounds %struct.tftperror, %struct.tftperror* %670, i32 0, i32 0
  store i16 %668, i16* %671, align 4
  %672 = call zeroext i16 @htons(i16 zeroext 2) #13
  %673 = getelementptr inbounds %struct.request, %struct.request* %4, i32 0, i32 20
  %674 = bitcast %union.anon.2* %673 to %struct.tftperror*
  %675 = getelementptr inbounds %struct.tftperror, %struct.tftperror* %674, i32 0, i32 1
  store i16 %672, i16* %675, align 2
  %676 = getelementptr inbounds %struct.request, %struct.request* %4, i32 0, i32 20
  %677 = bitcast %union.anon.2* %676 to %struct.tftperror*
  %678 = getelementptr inbounds %struct.tftperror, %struct.tftperror* %677, i32 0, i32 2
  %679 = getelementptr inbounds [512 x i8], [512 x i8]* %678, i32 0, i32 0
  %680 = call i32 (i8*, i8*, ...) @sprintf(i8* %679, i8* getelementptr inbounds ([24 x i8], [24 x i8]* @.str.24, i32 0, i32 0)) #10
  %681 = getelementptr inbounds %struct.request, %struct.request* %4, i32 0, i32 3
  %682 = load i32, i32* %681, align 8
  %683 = getelementptr inbounds %struct.request, %struct.request* %4, i32 0, i32 20
  %684 = bitcast %union.anon.2* %683 to %struct.tftperror*
  %685 = bitcast %struct.tftperror* %684 to i8*
  %686 = getelementptr inbounds %struct.request, %struct.request* %4, i32 0, i32 20
  %687 = bitcast %union.anon.2* %686 to %struct.tftperror*
  %688 = getelementptr inbounds %struct.tftperror, %struct.tftperror* %687, i32 0, i32 2
  %689 = getelementptr inbounds [512 x i8], [512 x i8]* %688, i32 0, i32 0
  %690 = call i64 @strlen(i8* %689) #11
  %691 = add i64 %690, 5
  %692 = call i64 @send(i32 %682, i8* %685, i64 %691, i32 0)
  call void @_Z7logMessP7requesth(%struct.request* %4, i8 zeroext 1)
  %693 = getelementptr inbounds %struct.request, %struct.request* %4, i32 0, i32 6
  store i8 -1, i8* %693, align 1
  br label %2810

; <label>:694:                                    ; preds = %663
  store i32 0, i32* %14, align 4
  br label %695

; <label>:695:                                    ; preds = %809, %694
  %696 = load i32, i32* %14, align 4
  %697 = icmp slt i32 %696, 8
  br i1 %697, label %698, label %812

; <label>:698:                                    ; preds = %695
  %699 = load i32, i32* %14, align 4
  %700 = sext i32 %699 to i64
  %701 = getelementptr inbounds [8 x %struct.home], [8 x %struct.home]* getelementptr inbounds (%struct.data2, %struct.data2* @cfig, i32 0, i32 1), i64 0, i64 %700
  %702 = getelementptr inbounds %struct.home, %struct.home* %701, i32 0, i32 0
  %703 = getelementptr inbounds [64 x i8], [64 x i8]* %702, i64 0, i64 0
  %704 = load i8, i8* %703, align 8
  %705 = icmp ne i8 %704, 0
  br i1 %705, label %706, label %767

; <label>:706:                                    ; preds = %698
  %707 = getelementptr inbounds %struct.request, %struct.request* %4, i32 0, i32 9
  %708 = load i8*, i8** %707, align 8
  %709 = load i32, i32* %14, align 4
  %710 = sext i32 %709 to i64
  %711 = getelementptr inbounds [8 x %struct.home], [8 x %struct.home]* getelementptr inbounds (%struct.data2, %struct.data2* @cfig, i32 0, i32 1), i64 0, i64 %710
  %712 = getelementptr inbounds %struct.home, %struct.home* %711, i32 0, i32 0
  %713 = getelementptr inbounds [64 x i8], [64 x i8]* %712, i32 0, i32 0
  %714 = call i32 @strcasecmp(i8* %708, i8* %713) #11
  %715 = icmp ne i32 %714, 0
  br i1 %715, label %767, label %716

; <label>:716:                                    ; preds = %706
  %717 = load i32, i32* %14, align 4
  %718 = sext i32 %717 to i64
  %719 = getelementptr inbounds [8 x %struct.home], [8 x %struct.home]* getelementptr inbounds (%struct.data2, %struct.data2* @cfig, i32 0, i32 1), i64 0, i64 %718
  %720 = getelementptr inbounds %struct.home, %struct.home* %719, i32 0, i32 1
  %721 = getelementptr inbounds [256 x i8], [256 x i8]* %720, i32 0, i32 0
  %722 = call i64 @strlen(i8* %721) #11
  %723 = load i8*, i8** %13, align 8
  %724 = call i64 @strlen(i8* %723) #11
  %725 = add i64 %722, %724
  %726 = icmp uge i64 %725, 256
  br i1 %726, label %727, label %754

; <label>:727:                                    ; preds = %716
  %728 = call zeroext i16 @htons(i16 zeroext 5) #13
  %729 = getelementptr inbounds %struct.request, %struct.request* %4, i32 0, i32 20
  %730 = bitcast %union.anon.2* %729 to %struct.tftperror*
  %731 = getelementptr inbounds %struct.tftperror, %struct.tftperror* %730, i32 0, i32 0
  store i16 %728, i16* %731, align 4
  %732 = call zeroext i16 @htons(i16 zeroext 2) #13
  %733 = getelementptr inbounds %struct.request, %struct.request* %4, i32 0, i32 20
  %734 = bitcast %union.anon.2* %733 to %struct.tftperror*
  %735 = getelementptr inbounds %struct.tftperror, %struct.tftperror* %734, i32 0, i32 1
  store i16 %732, i16* %735, align 2
  %736 = getelementptr inbounds %struct.request, %struct.request* %4, i32 0, i32 20
  %737 = bitcast %union.anon.2* %736 to %struct.tftperror*
  %738 = getelementptr inbounds %struct.tftperror, %struct.tftperror* %737, i32 0, i32 2
  %739 = getelementptr inbounds [512 x i8], [512 x i8]* %738, i32 0, i32 0
  %740 = call i32 (i8*, i8*, ...) @sprintf(i8* %739, i8* getelementptr inbounds ([19 x i8], [19 x i8]* @.str.23, i32 0, i32 0)) #10
  %741 = getelementptr inbounds %struct.request, %struct.request* %4, i32 0, i32 3
  %742 = load i32, i32* %741, align 8
  %743 = getelementptr inbounds %struct.request, %struct.request* %4, i32 0, i32 20
  %744 = bitcast %union.anon.2* %743 to %struct.tftperror*
  %745 = bitcast %struct.tftperror* %744 to i8*
  %746 = getelementptr inbounds %struct.request, %struct.request* %4, i32 0, i32 20
  %747 = bitcast %union.anon.2* %746 to %struct.tftperror*
  %748 = getelementptr inbounds %struct.tftperror, %struct.tftperror* %747, i32 0, i32 2
  %749 = getelementptr inbounds [512 x i8], [512 x i8]* %748, i32 0, i32 0
  %750 = call i64 @strlen(i8* %749) #11
  %751 = add i64 %750, 5
  %752 = call i64 @send(i32 %742, i8* %745, i64 %751, i32 0)
  call void @_Z7logMessP7requesth(%struct.request* %4, i8 zeroext 1)
  %753 = getelementptr inbounds %struct.request, %struct.request* %4, i32 0, i32 6
  store i8 -1, i8* %753, align 1
  br label %812

; <label>:754:                                    ; preds = %716
  %755 = getelementptr inbounds %struct.request, %struct.request* %4, i32 0, i32 7
  %756 = getelementptr inbounds [256 x i8], [256 x i8]* %755, i32 0, i32 0
  %757 = load i32, i32* %14, align 4
  %758 = sext i32 %757 to i64
  %759 = getelementptr inbounds [8 x %struct.home], [8 x %struct.home]* getelementptr inbounds (%struct.data2, %struct.data2* @cfig, i32 0, i32 1), i64 0, i64 %758
  %760 = getelementptr inbounds %struct.home, %struct.home* %759, i32 0, i32 1
  %761 = getelementptr inbounds [256 x i8], [256 x i8]* %760, i32 0, i32 0
  %762 = call i8* @strcpy(i8* %756, i8* %761) #10
  %763 = getelementptr inbounds %struct.request, %struct.request* %4, i32 0, i32 7
  %764 = getelementptr inbounds [256 x i8], [256 x i8]* %763, i32 0, i32 0
  %765 = load i8*, i8** %13, align 8
  %766 = call i8* @strcat(i8* %764, i8* %765) #10
  br label %812

; <label>:767:                                    ; preds = %706, %698
  %768 = load i32, i32* %14, align 4
  %769 = icmp eq i32 %768, 7
  br i1 %769, label %778, label %770

; <label>:770:                                    ; preds = %767
  %771 = load i32, i32* %14, align 4
  %772 = sext i32 %771 to i64
  %773 = getelementptr inbounds [8 x %struct.home], [8 x %struct.home]* getelementptr inbounds (%struct.data2, %struct.data2* @cfig, i32 0, i32 1), i64 0, i64 %772
  %774 = getelementptr inbounds %struct.home, %struct.home* %773, i32 0, i32 0
  %775 = getelementptr inbounds [64 x i8], [64 x i8]* %774, i64 0, i64 0
  %776 = load i8, i8* %775, align 8
  %777 = icmp ne i8 %776, 0
  br i1 %777, label %807, label %778

; <label>:778:                                    ; preds = %770, %767
  %779 = call zeroext i16 @htons(i16 zeroext 5) #13
  %780 = getelementptr inbounds %struct.request, %struct.request* %4, i32 0, i32 20
  %781 = bitcast %union.anon.2* %780 to %struct.tftperror*
  %782 = getelementptr inbounds %struct.tftperror, %struct.tftperror* %781, i32 0, i32 0
  store i16 %779, i16* %782, align 4
  %783 = call zeroext i16 @htons(i16 zeroext 2) #13
  %784 = getelementptr inbounds %struct.request, %struct.request* %4, i32 0, i32 20
  %785 = bitcast %union.anon.2* %784 to %struct.tftperror*
  %786 = getelementptr inbounds %struct.tftperror, %struct.tftperror* %785, i32 0, i32 1
  store i16 %783, i16* %786, align 2
  %787 = getelementptr inbounds %struct.request, %struct.request* %4, i32 0, i32 20
  %788 = bitcast %union.anon.2* %787 to %struct.tftperror*
  %789 = getelementptr inbounds %struct.tftperror, %struct.tftperror* %788, i32 0, i32 2
  %790 = getelementptr inbounds [512 x i8], [512 x i8]* %789, i32 0, i32 0
  %791 = getelementptr inbounds %struct.request, %struct.request* %4, i32 0, i32 9
  %792 = load i8*, i8** %791, align 8
  %793 = call i32 (i8*, i8*, ...) @sprintf(i8* %790, i8* getelementptr inbounds ([27 x i8], [27 x i8]* @.str.25, i32 0, i32 0), i8* %792) #10
  %794 = getelementptr inbounds %struct.request, %struct.request* %4, i32 0, i32 3
  %795 = load i32, i32* %794, align 8
  %796 = getelementptr inbounds %struct.request, %struct.request* %4, i32 0, i32 20
  %797 = bitcast %union.anon.2* %796 to %struct.tftperror*
  %798 = bitcast %struct.tftperror* %797 to i8*
  %799 = getelementptr inbounds %struct.request, %struct.request* %4, i32 0, i32 20
  %800 = bitcast %union.anon.2* %799 to %struct.tftperror*
  %801 = getelementptr inbounds %struct.tftperror, %struct.tftperror* %800, i32 0, i32 2
  %802 = getelementptr inbounds [512 x i8], [512 x i8]* %801, i32 0, i32 0
  %803 = call i64 @strlen(i8* %802) #11
  %804 = add i64 %803, 5
  %805 = call i64 @send(i32 %795, i8* %798, i64 %804, i32 0)
  call void @_Z7logMessP7requesth(%struct.request* %4, i8 zeroext 1)
  %806 = getelementptr inbounds %struct.request, %struct.request* %4, i32 0, i32 6
  store i8 -1, i8* %806, align 1
  br label %812

; <label>:807:                                    ; preds = %770
  br label %808

; <label>:808:                                    ; preds = %807
  br label %809

; <label>:809:                                    ; preds = %808
  %810 = load i32, i32* %14, align 4
  %811 = add nsw i32 %810, 1
  store i32 %811, i32* %14, align 4
  br label %695

; <label>:812:                                    ; preds = %778, %754, %727, %695
  br label %813

; <label>:813:                                    ; preds = %812, %646
  %814 = getelementptr inbounds %struct.request, %struct.request* %4, i32 0, i32 6
  %815 = load i8, i8* %814, align 1
  %816 = zext i8 %815 to i32
  %817 = icmp sge i32 %816, 3
  br i1 %817, label %818, label %819

; <label>:818:                                    ; preds = %813
  br label %2810

; <label>:819:                                    ; preds = %813
  %820 = getelementptr inbounds %struct.request, %struct.request* %4, i32 0, i32 21
  %821 = bitcast %union.anon.3* %820 to %struct.message*
  %822 = getelementptr inbounds %struct.message, %struct.message* %821, i32 0, i32 0
  %823 = load i16, i16* %822, align 8
  %824 = call zeroext i16 @ntohs(i16 zeroext %823) #13
  %825 = zext i16 %824 to i32
  %826 = icmp eq i32 %825, 1
  br i1 %826, label %827, label %958

; <label>:827:                                    ; preds = %819
  %828 = load i8, i8* getelementptr inbounds (%struct.data2, %struct.data2* @cfig, i32 0, i32 6), align 8
  %829 = icmp ne i8 %828, 0
  br i1 %829, label %857, label %830

; <label>:830:                                    ; preds = %827
  %831 = call zeroext i16 @htons(i16 zeroext 5) #13
  %832 = getelementptr inbounds %struct.request, %struct.request* %4, i32 0, i32 20
  %833 = bitcast %union.anon.2* %832 to %struct.tftperror*
  %834 = getelementptr inbounds %struct.tftperror, %struct.tftperror* %833, i32 0, i32 0
  store i16 %831, i16* %834, align 4
  %835 = call zeroext i16 @htons(i16 zeroext 2) #13
  %836 = getelementptr inbounds %struct.request, %struct.request* %4, i32 0, i32 20
  %837 = bitcast %union.anon.2* %836 to %struct.tftperror*
  %838 = getelementptr inbounds %struct.tftperror, %struct.tftperror* %837, i32 0, i32 1
  store i16 %835, i16* %838, align 2
  %839 = getelementptr inbounds %struct.request, %struct.request* %4, i32 0, i32 20
  %840 = bitcast %union.anon.2* %839 to %struct.tftperror*
  %841 = getelementptr inbounds %struct.tftperror, %struct.tftperror* %840, i32 0, i32 2
  %842 = getelementptr inbounds [512 x i8], [512 x i8]* %841, i32 0, i32 0
  %843 = call i8* @strcpy(i8* %842, i8* getelementptr inbounds ([18 x i8], [18 x i8]* @.str.26, i32 0, i32 0)) #10
  call void @_Z7logMessP7requesth(%struct.request* %4, i8 zeroext 1)
  %844 = getelementptr inbounds %struct.request, %struct.request* %4, i32 0, i32 3
  %845 = load i32, i32* %844, align 8
  %846 = getelementptr inbounds %struct.request, %struct.request* %4, i32 0, i32 20
  %847 = bitcast %union.anon.2* %846 to %struct.tftperror*
  %848 = bitcast %struct.tftperror* %847 to i8*
  %849 = getelementptr inbounds %struct.request, %struct.request* %4, i32 0, i32 20
  %850 = bitcast %union.anon.2* %849 to %struct.tftperror*
  %851 = getelementptr inbounds %struct.tftperror, %struct.tftperror* %850, i32 0, i32 2
  %852 = getelementptr inbounds [512 x i8], [512 x i8]* %851, i32 0, i32 0
  %853 = call i64 @strlen(i8* %852) #11
  %854 = add i64 %853, 5
  %855 = call i64 @send(i32 %845, i8* %848, i64 %854, i32 0)
  %856 = getelementptr inbounds %struct.request, %struct.request* %4, i32 0, i32 6
  store i8 -1, i8* %856, align 1
  br label %2810

; <label>:857:                                    ; preds = %827
  %858 = load i8*, i8** %11, align 8
  %859 = load i8, i8* %858, align 1
  %860 = icmp ne i8 %859, 0
  br i1 %860, label %861, label %901

; <label>:861:                                    ; preds = %857
  %862 = load i8*, i8** %11, align 8
  store i8* %862, i8** %15, align 8
  br label %863

; <label>:863:                                    ; preds = %894, %861
  %864 = load i8*, i8** %15, align 8
  %865 = load i8, i8* %864, align 1
  %866 = icmp ne i8 %865, 0
  br i1 %866, label %867, label %900

; <label>:867:                                    ; preds = %863
  %868 = load i8*, i8** %15, align 8
  %869 = call i32 @strcasecmp(i8* %868, i8* getelementptr inbounds ([8 x i8], [8 x i8]* @.str.27, i32 0, i32 0)) #11
  %870 = icmp ne i32 %869, 0
  br i1 %870, label %894, label %871

; <label>:871:                                    ; preds = %867
  %872 = load i8*, i8** %15, align 8
  %873 = call i64 @strlen(i8* %872) #11
  %874 = add i64 %873, 1
  %875 = load i8*, i8** %15, align 8
  %876 = getelementptr inbounds i8, i8* %875, i64 %874
  store i8* %876, i8** %15, align 8
  %877 = load i8*, i8** %15, align 8
  %878 = call i64 @atol(i8* %877) #11
  %879 = trunc i64 %878 to i32
  store i32 %879, i32* %16, align 4
  %880 = load i32, i32* %16, align 4
  %881 = icmp ult i32 %880, 512
  br i1 %881, label %882, label %883

; <label>:882:                                    ; preds = %871
  store i32 512, i32* %16, align 4
  br label %890

; <label>:883:                                    ; preds = %871
  %884 = load i32, i32* %16, align 4
  %885 = load i32, i32* @blksize, align 4
  %886 = icmp ugt i32 %884, %885
  br i1 %886, label %887, label %889

; <label>:887:                                    ; preds = %883
  %888 = load i32, i32* @blksize, align 4
  store i32 %888, i32* %16, align 4
  br label %889

; <label>:889:                                    ; preds = %887, %883
  br label %890

; <label>:890:                                    ; preds = %889, %882
  %891 = load i32, i32* %16, align 4
  %892 = trunc i32 %891 to i16
  %893 = getelementptr inbounds %struct.request, %struct.request* %4, i32 0, i32 22
  store i16 %892, i16* %893, align 4
  br label %900

; <label>:894:                                    ; preds = %867
  %895 = load i8*, i8** %15, align 8
  %896 = call i64 @strlen(i8* %895) #11
  %897 = add i64 %896, 1
  %898 = load i8*, i8** %15, align 8
  %899 = getelementptr inbounds i8, i8* %898, i64 %897
  store i8* %899, i8** %15, align 8
  br label %863

; <label>:900:                                    ; preds = %890, %863
  br label %901

; <label>:901:                                    ; preds = %900, %857
  %902 = call i32* @__errno_location() #13
  store i32 0, i32* %902, align 4
  %903 = getelementptr inbounds %struct.request, %struct.request* %4, i32 0, i32 10
  %904 = load i8*, i8** %903, align 8
  %905 = call i32 @strcasecmp(i8* %904, i8* getelementptr inbounds ([9 x i8], [9 x i8]* @.str.28, i32 0, i32 0)) #11
  %906 = icmp ne i32 %905, 0
  br i1 %906, label %907, label %912

; <label>:907:                                    ; preds = %901
  %908 = getelementptr inbounds %struct.request, %struct.request* %4, i32 0, i32 10
  %909 = load i8*, i8** %908, align 8
  %910 = call i32 @strcasecmp(i8* %909, i8* getelementptr inbounds ([6 x i8], [6 x i8]* @.str.29, i32 0, i32 0)) #11
  %911 = icmp ne i32 %910, 0
  br i1 %911, label %917, label %912

; <label>:912:                                    ; preds = %907, %901
  %913 = getelementptr inbounds %struct.request, %struct.request* %4, i32 0, i32 7
  %914 = getelementptr inbounds [256 x i8], [256 x i8]* %913, i32 0, i32 0
  %915 = call %struct._IO_FILE* @fopen(i8* %914, i8* getelementptr inbounds ([3 x i8], [3 x i8]* @.str.30, i32 0, i32 0))
  %916 = getelementptr inbounds %struct.request, %struct.request* %4, i32 0, i32 8
  store %struct._IO_FILE* %915, %struct._IO_FILE** %916, align 8
  br label %922

; <label>:917:                                    ; preds = %907
  %918 = getelementptr inbounds %struct.request, %struct.request* %4, i32 0, i32 7
  %919 = getelementptr inbounds [256 x i8], [256 x i8]* %918, i32 0, i32 0
  %920 = call %struct._IO_FILE* @fopen(i8* %919, i8* getelementptr inbounds ([3 x i8], [3 x i8]* @.str.31, i32 0, i32 0))
  %921 = getelementptr inbounds %struct.request, %struct.request* %4, i32 0, i32 8
  store %struct._IO_FILE* %920, %struct._IO_FILE** %921, align 8
  br label %922

; <label>:922:                                    ; preds = %917, %912
  %923 = call i32* @__errno_location() #13
  %924 = load i32, i32* %923, align 4
  %925 = icmp ne i32 %924, 0
  br i1 %925, label %930, label %926

; <label>:926:                                    ; preds = %922
  %927 = getelementptr inbounds %struct.request, %struct.request* %4, i32 0, i32 8
  %928 = load %struct._IO_FILE*, %struct._IO_FILE** %927, align 8
  %929 = icmp ne %struct._IO_FILE* %928, null
  br i1 %929, label %957, label %930

; <label>:930:                                    ; preds = %926, %922
  %931 = call zeroext i16 @htons(i16 zeroext 5) #13
  %932 = getelementptr inbounds %struct.request, %struct.request* %4, i32 0, i32 20
  %933 = bitcast %union.anon.2* %932 to %struct.tftperror*
  %934 = getelementptr inbounds %struct.tftperror, %struct.tftperror* %933, i32 0, i32 0
  store i16 %931, i16* %934, align 4
  %935 = call zeroext i16 @htons(i16 zeroext 1) #13
  %936 = getelementptr inbounds %struct.request, %struct.request* %4, i32 0, i32 20
  %937 = bitcast %union.anon.2* %936 to %struct.tftperror*
  %938 = getelementptr inbounds %struct.tftperror, %struct.tftperror* %937, i32 0, i32 1
  store i16 %935, i16* %938, align 2
  %939 = getelementptr inbounds %struct.request, %struct.request* %4, i32 0, i32 20
  %940 = bitcast %union.anon.2* %939 to %struct.tftperror*
  %941 = getelementptr inbounds %struct.tftperror, %struct.tftperror* %940, i32 0, i32 2
  %942 = getelementptr inbounds [512 x i8], [512 x i8]* %941, i32 0, i32 0
  %943 = call i8* @strcpy(i8* %942, i8* getelementptr inbounds ([28 x i8], [28 x i8]* @.str.32, i32 0, i32 0)) #10
  call void @_Z7logMessP7requesth(%struct.request* %4, i8 zeroext 1)
  %944 = getelementptr inbounds %struct.request, %struct.request* %4, i32 0, i32 3
  %945 = load i32, i32* %944, align 8
  %946 = getelementptr inbounds %struct.request, %struct.request* %4, i32 0, i32 20
  %947 = bitcast %union.anon.2* %946 to %struct.tftperror*
  %948 = bitcast %struct.tftperror* %947 to i8*
  %949 = getelementptr inbounds %struct.request, %struct.request* %4, i32 0, i32 20
  %950 = bitcast %union.anon.2* %949 to %struct.tftperror*
  %951 = getelementptr inbounds %struct.tftperror, %struct.tftperror* %950, i32 0, i32 2
  %952 = getelementptr inbounds [512 x i8], [512 x i8]* %951, i32 0, i32 0
  %953 = call i64 @strlen(i8* %952) #11
  %954 = add i64 %953, 5
  %955 = call i64 @send(i32 %945, i8* %948, i64 %954, i32 0)
  %956 = getelementptr inbounds %struct.request, %struct.request* %4, i32 0, i32 6
  store i8 -1, i8* %956, align 1
  br label %2810

; <label>:957:                                    ; preds = %926
  br label %1122

; <label>:958:                                    ; preds = %819
  %959 = load i8, i8* getelementptr inbounds (%struct.data2, %struct.data2* @cfig, i32 0, i32 7), align 1
  %960 = icmp ne i8 %959, 0
  br i1 %960, label %991, label %961

; <label>:961:                                    ; preds = %958
  %962 = load i8, i8* getelementptr inbounds (%struct.data2, %struct.data2* @cfig, i32 0, i32 8), align 2
  %963 = icmp ne i8 %962, 0
  br i1 %963, label %991, label %964

; <label>:964:                                    ; preds = %961
  %965 = call zeroext i16 @htons(i16 zeroext 5) #13
  %966 = getelementptr inbounds %struct.request, %struct.request* %4, i32 0, i32 20
  %967 = bitcast %union.anon.2* %966 to %struct.tftperror*
  %968 = getelementptr inbounds %struct.tftperror, %struct.tftperror* %967, i32 0, i32 0
  store i16 %965, i16* %968, align 4
  %969 = call zeroext i16 @htons(i16 zeroext 2) #13
  %970 = getelementptr inbounds %struct.request, %struct.request* %4, i32 0, i32 20
  %971 = bitcast %union.anon.2* %970 to %struct.tftperror*
  %972 = getelementptr inbounds %struct.tftperror, %struct.tftperror* %971, i32 0, i32 1
  store i16 %969, i16* %972, align 2
  %973 = getelementptr inbounds %struct.request, %struct.request* %4, i32 0, i32 20
  %974 = bitcast %union.anon.2* %973 to %struct.tftperror*
  %975 = getelementptr inbounds %struct.tftperror, %struct.tftperror* %974, i32 0, i32 2
  %976 = getelementptr inbounds [512 x i8], [512 x i8]* %975, i32 0, i32 0
  %977 = call i8* @strcpy(i8* %976, i8* getelementptr inbounds ([18 x i8], [18 x i8]* @.str.33, i32 0, i32 0)) #10
  %978 = getelementptr inbounds %struct.request, %struct.request* %4, i32 0, i32 3
  %979 = load i32, i32* %978, align 8
  %980 = getelementptr inbounds %struct.request, %struct.request* %4, i32 0, i32 20
  %981 = bitcast %union.anon.2* %980 to %struct.tftperror*
  %982 = bitcast %struct.tftperror* %981 to i8*
  %983 = getelementptr inbounds %struct.request, %struct.request* %4, i32 0, i32 20
  %984 = bitcast %union.anon.2* %983 to %struct.tftperror*
  %985 = getelementptr inbounds %struct.tftperror, %struct.tftperror* %984, i32 0, i32 2
  %986 = getelementptr inbounds [512 x i8], [512 x i8]* %985, i32 0, i32 0
  %987 = call i64 @strlen(i8* %986) #11
  %988 = add i64 %987, 5
  %989 = call i64 @send(i32 %979, i8* %982, i64 %988, i32 0)
  call void @_Z7logMessP7requesth(%struct.request* %4, i8 zeroext 1)
  %990 = getelementptr inbounds %struct.request, %struct.request* %4, i32 0, i32 6
  store i8 -1, i8* %990, align 1
  br label %2810

; <label>:991:                                    ; preds = %961, %958
  %992 = getelementptr inbounds %struct.request, %struct.request* %4, i32 0, i32 7
  %993 = getelementptr inbounds [256 x i8], [256 x i8]* %992, i32 0, i32 0
  %994 = call %struct._IO_FILE* @fopen(i8* %993, i8* getelementptr inbounds ([3 x i8], [3 x i8]* @.str.31, i32 0, i32 0))
  %995 = getelementptr inbounds %struct.request, %struct.request* %4, i32 0, i32 8
  store %struct._IO_FILE* %994, %struct._IO_FILE** %995, align 8
  %996 = getelementptr inbounds %struct.request, %struct.request* %4, i32 0, i32 8
  %997 = load %struct._IO_FILE*, %struct._IO_FILE** %996, align 8
  %998 = icmp ne %struct._IO_FILE* %997, null
  br i1 %998, label %999, label %1034

; <label>:999:                                    ; preds = %991
  %1000 = getelementptr inbounds %struct.request, %struct.request* %4, i32 0, i32 8
  %1001 = load %struct._IO_FILE*, %struct._IO_FILE** %1000, align 8
  %1002 = call i32 @fclose(%struct._IO_FILE* %1001)
  %1003 = getelementptr inbounds %struct.request, %struct.request* %4, i32 0, i32 8
  store %struct._IO_FILE* null, %struct._IO_FILE** %1003, align 8
  %1004 = load i8, i8* getelementptr inbounds (%struct.data2, %struct.data2* @cfig, i32 0, i32 8), align 2
  %1005 = icmp ne i8 %1004, 0
  br i1 %1005, label %1033, label %1006

; <label>:1006:                                   ; preds = %999
  %1007 = call zeroext i16 @htons(i16 zeroext 5) #13
  %1008 = getelementptr inbounds %struct.request, %struct.request* %4, i32 0, i32 20
  %1009 = bitcast %union.anon.2* %1008 to %struct.tftperror*
  %1010 = getelementptr inbounds %struct.tftperror, %struct.tftperror* %1009, i32 0, i32 0
  store i16 %1007, i16* %1010, align 4
  %1011 = call zeroext i16 @htons(i16 zeroext 6) #13
  %1012 = getelementptr inbounds %struct.request, %struct.request* %4, i32 0, i32 20
  %1013 = bitcast %union.anon.2* %1012 to %struct.tftperror*
  %1014 = getelementptr inbounds %struct.tftperror, %struct.tftperror* %1013, i32 0, i32 1
  store i16 %1011, i16* %1014, align 2
  %1015 = getelementptr inbounds %struct.request, %struct.request* %4, i32 0, i32 20
  %1016 = bitcast %union.anon.2* %1015 to %struct.tftperror*
  %1017 = getelementptr inbounds %struct.tftperror, %struct.tftperror* %1016, i32 0, i32 2
  %1018 = getelementptr inbounds [512 x i8], [512 x i8]* %1017, i32 0, i32 0
  %1019 = call i8* @strcpy(i8* %1018, i8* getelementptr inbounds ([20 x i8], [20 x i8]* @.str.34, i32 0, i32 0)) #10
  %1020 = getelementptr inbounds %struct.request, %struct.request* %4, i32 0, i32 3
  %1021 = load i32, i32* %1020, align 8
  %1022 = getelementptr inbounds %struct.request, %struct.request* %4, i32 0, i32 20
  %1023 = bitcast %union.anon.2* %1022 to %struct.tftperror*
  %1024 = bitcast %struct.tftperror* %1023 to i8*
  %1025 = getelementptr inbounds %struct.request, %struct.request* %4, i32 0, i32 20
  %1026 = bitcast %union.anon.2* %1025 to %struct.tftperror*
  %1027 = getelementptr inbounds %struct.tftperror, %struct.tftperror* %1026, i32 0, i32 2
  %1028 = getelementptr inbounds [512 x i8], [512 x i8]* %1027, i32 0, i32 0
  %1029 = call i64 @strlen(i8* %1028) #11
  %1030 = add i64 %1029, 5
  %1031 = call i64 @send(i32 %1021, i8* %1024, i64 %1030, i32 0)
  call void @_Z7logMessP7requesth(%struct.request* %4, i8 zeroext 1)
  %1032 = getelementptr inbounds %struct.request, %struct.request* %4, i32 0, i32 6
  store i8 -1, i8* %1032, align 1
  br label %2810

; <label>:1033:                                   ; preds = %999
  br label %1065

; <label>:1034:                                   ; preds = %991
  %1035 = load i8, i8* getelementptr inbounds (%struct.data2, %struct.data2* @cfig, i32 0, i32 7), align 1
  %1036 = icmp ne i8 %1035, 0
  br i1 %1036, label %1064, label %1037

; <label>:1037:                                   ; preds = %1034
  %1038 = call zeroext i16 @htons(i16 zeroext 5) #13
  %1039 = getelementptr inbounds %struct.request, %struct.request* %4, i32 0, i32 20
  %1040 = bitcast %union.anon.2* %1039 to %struct.tftperror*
  %1041 = getelementptr inbounds %struct.tftperror, %struct.tftperror* %1040, i32 0, i32 0
  store i16 %1038, i16* %1041, align 4
  %1042 = call zeroext i16 @htons(i16 zeroext 2) #13
  %1043 = getelementptr inbounds %struct.request, %struct.request* %4, i32 0, i32 20
  %1044 = bitcast %union.anon.2* %1043 to %struct.tftperror*
  %1045 = getelementptr inbounds %struct.tftperror, %struct.tftperror* %1044, i32 0, i32 1
  store i16 %1042, i16* %1045, align 2
  %1046 = getelementptr inbounds %struct.request, %struct.request* %4, i32 0, i32 20
  %1047 = bitcast %union.anon.2* %1046 to %struct.tftperror*
  %1048 = getelementptr inbounds %struct.tftperror, %struct.tftperror* %1047, i32 0, i32 2
  %1049 = getelementptr inbounds [512 x i8], [512 x i8]* %1048, i32 0, i32 0
  %1050 = call i8* @strcpy(i8* %1049, i8* getelementptr inbounds ([26 x i8], [26 x i8]* @.str.35, i32 0, i32 0)) #10
  %1051 = getelementptr inbounds %struct.request, %struct.request* %4, i32 0, i32 3
  %1052 = load i32, i32* %1051, align 8
  %1053 = getelementptr inbounds %struct.request, %struct.request* %4, i32 0, i32 20
  %1054 = bitcast %union.anon.2* %1053 to %struct.tftperror*
  %1055 = bitcast %struct.tftperror* %1054 to i8*
  %1056 = getelementptr inbounds %struct.request, %struct.request* %4, i32 0, i32 20
  %1057 = bitcast %union.anon.2* %1056 to %struct.tftperror*
  %1058 = getelementptr inbounds %struct.tftperror, %struct.tftperror* %1057, i32 0, i32 2
  %1059 = getelementptr inbounds [512 x i8], [512 x i8]* %1058, i32 0, i32 0
  %1060 = call i64 @strlen(i8* %1059) #11
  %1061 = add i64 %1060, 5
  %1062 = call i64 @send(i32 %1052, i8* %1055, i64 %1061, i32 0)
  call void @_Z7logMessP7requesth(%struct.request* %4, i8 zeroext 1)
  %1063 = getelementptr inbounds %struct.request, %struct.request* %4, i32 0, i32 6
  store i8 -1, i8* %1063, align 1
  br label %2810

; <label>:1064:                                   ; preds = %1034
  br label %1065

; <label>:1065:                                   ; preds = %1064, %1033
  %1066 = call i32* @__errno_location() #13
  store i32 0, i32* %1066, align 4
  %1067 = getelementptr inbounds %struct.request, %struct.request* %4, i32 0, i32 10
  %1068 = load i8*, i8** %1067, align 8
  %1069 = call i32 @strcasecmp(i8* %1068, i8* getelementptr inbounds ([9 x i8], [9 x i8]* @.str.28, i32 0, i32 0)) #11
  %1070 = icmp ne i32 %1069, 0
  br i1 %1070, label %1071, label %1076

; <label>:1071:                                   ; preds = %1065
  %1072 = getelementptr inbounds %struct.request, %struct.request* %4, i32 0, i32 10
  %1073 = load i8*, i8** %1072, align 8
  %1074 = call i32 @strcasecmp(i8* %1073, i8* getelementptr inbounds ([6 x i8], [6 x i8]* @.str.29, i32 0, i32 0)) #11
  %1075 = icmp ne i32 %1074, 0
  br i1 %1075, label %1081, label %1076

; <label>:1076:                                   ; preds = %1071, %1065
  %1077 = getelementptr inbounds %struct.request, %struct.request* %4, i32 0, i32 7
  %1078 = getelementptr inbounds [256 x i8], [256 x i8]* %1077, i32 0, i32 0
  %1079 = call %struct._IO_FILE* @fopen(i8* %1078, i8* getelementptr inbounds ([3 x i8], [3 x i8]* @.str.36, i32 0, i32 0))
  %1080 = getelementptr inbounds %struct.request, %struct.request* %4, i32 0, i32 8
  store %struct._IO_FILE* %1079, %struct._IO_FILE** %1080, align 8
  br label %1086

; <label>:1081:                                   ; preds = %1071
  %1082 = getelementptr inbounds %struct.request, %struct.request* %4, i32 0, i32 7
  %1083 = getelementptr inbounds [256 x i8], [256 x i8]* %1082, i32 0, i32 0
  %1084 = call %struct._IO_FILE* @fopen(i8* %1083, i8* getelementptr inbounds ([3 x i8], [3 x i8]* @.str.37, i32 0, i32 0))
  %1085 = getelementptr inbounds %struct.request, %struct.request* %4, i32 0, i32 8
  store %struct._IO_FILE* %1084, %struct._IO_FILE** %1085, align 8
  br label %1086

; <label>:1086:                                   ; preds = %1081, %1076
  %1087 = call i32* @__errno_location() #13
  %1088 = load i32, i32* %1087, align 4
  %1089 = icmp ne i32 %1088, 0
  br i1 %1089, label %1094, label %1090

; <label>:1090:                                   ; preds = %1086
  %1091 = getelementptr inbounds %struct.request, %struct.request* %4, i32 0, i32 8
  %1092 = load %struct._IO_FILE*, %struct._IO_FILE** %1091, align 8
  %1093 = icmp ne %struct._IO_FILE* %1092, null
  br i1 %1093, label %1121, label %1094

; <label>:1094:                                   ; preds = %1090, %1086
  %1095 = call zeroext i16 @htons(i16 zeroext 5) #13
  %1096 = getelementptr inbounds %struct.request, %struct.request* %4, i32 0, i32 20
  %1097 = bitcast %union.anon.2* %1096 to %struct.tftperror*
  %1098 = getelementptr inbounds %struct.tftperror, %struct.tftperror* %1097, i32 0, i32 0
  store i16 %1095, i16* %1098, align 4
  %1099 = call zeroext i16 @htons(i16 zeroext 2) #13
  %1100 = getelementptr inbounds %struct.request, %struct.request* %4, i32 0, i32 20
  %1101 = bitcast %union.anon.2* %1100 to %struct.tftperror*
  %1102 = getelementptr inbounds %struct.tftperror, %struct.tftperror* %1101, i32 0, i32 1
  store i16 %1099, i16* %1102, align 2
  %1103 = getelementptr inbounds %struct.request, %struct.request* %4, i32 0, i32 20
  %1104 = bitcast %union.anon.2* %1103 to %struct.tftperror*
  %1105 = getelementptr inbounds %struct.tftperror, %struct.tftperror* %1104, i32 0, i32 2
  %1106 = getelementptr inbounds [512 x i8], [512 x i8]* %1105, i32 0, i32 0
  %1107 = call i8* @strcpy(i8* %1106, i8* getelementptr inbounds ([26 x i8], [26 x i8]* @.str.38, i32 0, i32 0)) #10
  %1108 = getelementptr inbounds %struct.request, %struct.request* %4, i32 0, i32 3
  %1109 = load i32, i32* %1108, align 8
  %1110 = getelementptr inbounds %struct.request, %struct.request* %4, i32 0, i32 20
  %1111 = bitcast %union.anon.2* %1110 to %struct.tftperror*
  %1112 = bitcast %struct.tftperror* %1111 to i8*
  %1113 = getelementptr inbounds %struct.request, %struct.request* %4, i32 0, i32 20
  %1114 = bitcast %union.anon.2* %1113 to %struct.tftperror*
  %1115 = getelementptr inbounds %struct.tftperror, %struct.tftperror* %1114, i32 0, i32 2
  %1116 = getelementptr inbounds [512 x i8], [512 x i8]* %1115, i32 0, i32 0
  %1117 = call i64 @strlen(i8* %1116) #11
  %1118 = add i64 %1117, 5
  %1119 = call i64 @send(i32 %1109, i8* %1112, i64 %1118, i32 0)
  call void @_Z7logMessP7requesth(%struct.request* %4, i8 zeroext 1)
  %1120 = getelementptr inbounds %struct.request, %struct.request* %4, i32 0, i32 6
  store i8 -1, i8* %1120, align 1
  br label %2810

; <label>:1121:                                   ; preds = %1090
  br label %1122

; <label>:1122:                                   ; preds = %1121, %957
  %1123 = getelementptr inbounds %struct.request, %struct.request* %4, i32 0, i32 8
  %1124 = load %struct._IO_FILE*, %struct._IO_FILE** %1123, align 8
  %1125 = getelementptr inbounds %struct.request, %struct.request* %4, i32 0, i32 22
  %1126 = load i16, i16* %1125, align 4
  %1127 = zext i16 %1126 to i32
  %1128 = mul nsw i32 5, %1127
  %1129 = sext i32 %1128 to i64
  %1130 = call i32 @setvbuf(%struct._IO_FILE* %1124, i8* null, i32 0, i64 %1129) #10
  %1131 = load i8*, i8** %11, align 8
  %1132 = load i8, i8* %1131, align 1
  %1133 = icmp ne i8 %1132, 0
  br i1 %1133, label %1134, label %1387

; <label>:1134:                                   ; preds = %1122
  store i8 1, i8* %8, align 1
  %1135 = getelementptr inbounds %struct.request, %struct.request* %4, i32 0, i32 20
  %1136 = bitcast %union.anon.2* %1135 to %struct.message*
  %1137 = getelementptr inbounds %struct.message, %struct.message* %1136, i32 0, i32 1
  %1138 = getelementptr inbounds [514 x i8], [514 x i8]* %1137, i32 0, i32 0
  store i8* %1138, i8** %17, align 8
  %1139 = call zeroext i16 @htons(i16 zeroext 6) #13
  %1140 = getelementptr inbounds %struct.request, %struct.request* %4, i32 0, i32 20
  %1141 = bitcast %union.anon.2* %1140 to %struct.message*
  %1142 = getelementptr inbounds %struct.message, %struct.message* %1141, i32 0, i32 0
  store i16 %1139, i16* %1142, align 4
  br label %1143

; <label>:1143:                                   ; preds = %1356, %1134
  %1144 = load i8*, i8** %11, align 8
  %1145 = load i8, i8* %1144, align 1
  %1146 = icmp ne i8 %1145, 0
  br i1 %1146, label %1147, label %1362

; <label>:1147:                                   ; preds = %1143
  %1148 = load i8*, i8** %11, align 8
  %1149 = call i32 @strcasecmp(i8* %1148, i8* getelementptr inbounds ([8 x i8], [8 x i8]* @.str.27, i32 0, i32 0)) #11
  %1150 = icmp ne i32 %1149, 0
  br i1 %1150, label %1190, label %1151

; <label>:1151:                                   ; preds = %1147
  %1152 = load i8*, i8** %17, align 8
  %1153 = load i8*, i8** %11, align 8
  %1154 = call i8* @strcpy(i8* %1152, i8* %1153) #10
  %1155 = load i8*, i8** %17, align 8
  %1156 = call i64 @strlen(i8* %1155) #11
  %1157 = add i64 %1156, 1
  %1158 = load i8*, i8** %17, align 8
  %1159 = getelementptr inbounds i8, i8* %1158, i64 %1157
  store i8* %1159, i8** %17, align 8
  %1160 = load i8*, i8** %11, align 8
  %1161 = call i64 @strlen(i8* %1160) #11
  %1162 = add i64 %1161, 1
  %1163 = load i8*, i8** %11, align 8
  %1164 = getelementptr inbounds i8, i8* %1163, i64 %1162
  store i8* %1164, i8** %11, align 8
  %1165 = load i8*, i8** %11, align 8
  %1166 = call i64 @atol(i8* %1165) #11
  %1167 = trunc i64 %1166 to i32
  store i32 %1167, i32* %18, align 4
  %1168 = load i32, i32* %18, align 4
  %1169 = icmp ult i32 %1168, 512
  br i1 %1169, label %1170, label %1171

; <label>:1170:                                   ; preds = %1151
  store i32 512, i32* %18, align 4
  br label %1178

; <label>:1171:                                   ; preds = %1151
  %1172 = load i32, i32* %18, align 4
  %1173 = load i32, i32* @blksize, align 4
  %1174 = icmp ugt i32 %1172, %1173
  br i1 %1174, label %1175, label %1177

; <label>:1175:                                   ; preds = %1171
  %1176 = load i32, i32* @blksize, align 4
  store i32 %1176, i32* %18, align 4
  br label %1177

; <label>:1177:                                   ; preds = %1175, %1171
  br label %1178

; <label>:1178:                                   ; preds = %1177, %1170
  %1179 = load i32, i32* %18, align 4
  %1180 = trunc i32 %1179 to i16
  %1181 = getelementptr inbounds %struct.request, %struct.request* %4, i32 0, i32 22
  store i16 %1180, i16* %1181, align 4
  %1182 = load i8*, i8** %17, align 8
  %1183 = load i32, i32* %18, align 4
  %1184 = call i32 (i8*, i8*, ...) @sprintf(i8* %1182, i8* getelementptr inbounds ([3 x i8], [3 x i8]* @.str.39, i32 0, i32 0), i32 %1183) #10
  %1185 = load i8*, i8** %17, align 8
  %1186 = call i64 @strlen(i8* %1185) #11
  %1187 = add i64 %1186, 1
