; ModuleID = './test/showcases/opentftpd_st.bc'
source_filename = "opentftpd.cpp"
target datalayout = "e-m:e-p270:32:32-p271:32:32-p272:64:64-i64:64-f80:128-n8:16:32:64-S128"
target triple = "x86_64-pc-linux-gnu"

%"class.std::map" = type { %"class.std::_Rb_tree" }
%"class.std::_Rb_tree" = type { %"struct.std::_Rb_tree<std::__cxx11::basic_string<char>, std::pair<const std::__cxx11::basic_string<char>, request *>, std::_Select1st<std::pair<const std::__cxx11::basic_string<char>, request *> >, std::less<std::__cxx11::basic_string<char> >, std::allocator<std::pair<const std::__cxx11::basic_string<char>, request *> > >::_Rb_tree_impl" }
%"struct.std::_Rb_tree<std::__cxx11::basic_string<char>, std::pair<const std::__cxx11::basic_string<char>, request *>, std::_Select1st<std::pair<const std::__cxx11::basic_string<char>, request *> >, std::less<std::__cxx11::basic_string<char> >, std::allocator<std::pair<const std::__cxx11::basic_string<char>, request *> > >::_Rb_tree_impl" = type { %"struct.std::_Rb_tree_key_compare", %"struct.std::_Rb_tree_header" }
%"struct.std::_Rb_tree_key_compare" = type { %"struct.std::less" }
%"struct.std::less" = type { i8 }
%"struct.std::_Rb_tree_header" = type { %"struct.std::_Rb_tree_node_base", i64 }
%"struct.std::_Rb_tree_node_base" = type { i32, %"struct.std::_Rb_tree_node_base"*, %"struct.std::_Rb_tree_node_base"*, %"struct.std::_Rb_tree_node_base"* }
%"class.std::multimap" = type { %"class.std::_Rb_tree.0" }
%"class.std::_Rb_tree.0" = type { %"struct.std::_Rb_tree<long, std::pair<const long, request *>, std::_Select1st<std::pair<const long, request *> >, std::less<long>, std::allocator<std::pair<const long, request *> > >::_Rb_tree_impl" }
%"struct.std::_Rb_tree<long, std::pair<const long, request *>, std::_Select1st<std::pair<const long, request *> >, std::less<long>, std::allocator<std::pair<const long, request *> > >::_Rb_tree_impl" = type { %"struct.std::_Rb_tree_key_compare.4", %"struct.std::_Rb_tree_header" }
%"struct.std::_Rb_tree_key_compare.4" = type { %"struct.std::less.5" }
%"struct.std::less.5" = type { i8 }
%struct.data1 = type { [8 x %struct.tftpConnType], [8 x i32], [8 x i32], [8 x i32], [8 x i16], i8, i8, i32 }
%struct.tftpConnType = type { i32, %struct.sockaddr_in, i32, i16, i8, i8 }
%struct.sockaddr_in = type { i16, i16, %struct.in_addr, [8 x i8] }
%struct.in_addr = type { i32 }
%struct.data2 = type { [32 x %struct.data12], [8 x %struct.home], %struct._IO_FILE*, [128 x i8], i32, i32, i8, i8, i8, i32, i8, i32, i32, [8 x %struct.ifreq], i8, i32, [8 x i32], i8 }
%struct.data12 = type { i32, i32 }
%struct.home = type { [64 x i8], [256 x i8] }
%struct._IO_FILE = type { i32, i8*, i8*, i8*, i8*, i8*, i8*, i8*, i8*, i8*, i8*, i8*, %struct._IO_marker*, %struct._IO_FILE*, i32, i32, i64, i16, i8, [1 x i8], i8*, i64, i8*, i8*, i8*, i8*, i64, i32, [20 x i8] }
%struct._IO_marker = type { %struct._IO_marker*, %struct._IO_FILE*, i32 }
%struct.ifreq = type { %union.anon, %union.anon.7 }
%union.anon = type { [16 x i8] }
%union.anon.7 = type { %struct.ifmap }
%struct.ifmap = type { i64, i64, i16, i8, i8, i8 }
%struct.ifconf = type { i32, %union.anon.8 }
%union.anon.8 = type { i8* }
%struct.packet = type { i16, i16, i8 }
%"struct.std::piecewise_construct_t" = type { i8 }
%union.pthread_attr_t = type { i64, [48 x i8] }
%struct.timeval = type { i64, i64 }
%struct.fd_set = type { [16 x i64] }
%struct.request = type { [32 x i8], i8, i8, i8, i64, [256 x i8], %struct._IO_FILE*, i8*, i8*, i32, i32, i32, i32, i16, i16, i32, [2 x i16], i32, %struct.sockaddr_in, i32, [2 x %struct.packet*], %union.anon.9 }
%union.anon.9 = type { %struct.message }
%struct.message = type { i16, [514 x i8] }
%"class.std::__cxx11::basic_string" = type { %"struct.std::__cxx11::basic_string<char, std::char_traits<char>, std::allocator<char> >::_Alloc_hider", i64, %union.anon.13 }
%"struct.std::__cxx11::basic_string<char, std::char_traits<char>, std::allocator<char> >::_Alloc_hider" = type { i8* }
%union.anon.13 = type { i64, [8 x i8] }
%"class.std::allocator.10" = type { i8 }
%"struct.std::pair" = type { i64, %struct.request* }
%"struct.std::_Rb_tree_iterator" = type { %"struct.std::_Rb_tree_node_base"* }
%struct.sockaddr = type { i16, [14 x i8] }
%struct.acknowledgement = type { i16, i16 }
%struct.tftperror = type { i16, i16, [508 x i8] }
%"struct.std::pair.14" = type { i64, %struct.request* }
%struct.tm = type { i32, i32, i32, i32, i32, i32, i32, i32, i32, i64, i8* }
%struct.passwd = type { i8*, i8*, i32, i32, i8*, i8*, i8* }
%"struct.std::_Rb_tree_iterator.23" = type { %"struct.std::_Rb_tree_node_base"* }
%"struct.std::_Rb_tree_const_iterator" = type { %"struct.std::_Rb_tree_node_base"* }
%"class.std::tuple" = type { %"struct.std::_Tuple_impl" }
%"struct.std::_Tuple_impl" = type { %"struct.std::_Head_base" }
%"struct.std::_Head_base" = type { %"class.std::__cxx11::basic_string"* }
%"class.std::tuple.24" = type { i8 }
%"struct.std::pair.18" = type { %"class.std::__cxx11::basic_string", %struct.request* }
%"class.std::__pair_base" = type { i8 }
%"struct.std::_Rb_tree_node.21" = type { %"struct.std::_Rb_tree_node_base", %"struct.__gnu_cxx::__aligned_membuf.22" }
%"struct.__gnu_cxx::__aligned_membuf.22" = type { [16 x i8] }
%struct.data15 = type { %union.anon.17 }
%union.anon.17 = type { i32 }
%"class.std::allocator" = type { i8 }
%"class.__gnu_cxx::new_allocator" = type { i8 }
%"struct.std::_Rb_tree_node" = type { %"struct.std::_Rb_tree_node_base", %"struct.__gnu_cxx::__aligned_membuf" }
%"struct.__gnu_cxx::__aligned_membuf" = type { [40 x i8] }
%"class.std::allocator.1" = type { i8 }
%"class.__gnu_cxx::new_allocator.2" = type { i8 }
%"struct.std::pair.25" = type { %"struct.std::_Rb_tree_node_base"*, %"struct.std::_Rb_tree_node_base"* }
%"struct.std::_Select1st" = type { i8 }
%"struct.std::_Index_tuple" = type { i8 }
%"struct.std::_Index_tuple.28" = type { i8 }
%"class.std::__pair_base.19" = type { i8 }
%"class.std::__pair_base.26" = type { i8 }
%"struct.std::pair.29" = type { %"struct.std::_Rb_tree_iterator.23", %"struct.std::_Rb_tree_iterator.23" }
%"class.std::__pair_base.30" = type { i8 }
%"struct.std::_Select1st.32" = type { i8 }
%"class.std::__pair_base.15" = type { i8 }
%"struct.std::_Rb_tree_const_iterator.34" = type { %"struct.std::_Rb_tree_node_base"* }

$_ZNSt3mapINSt7__cxx1112basic_stringIcSt11char_traitsIcESaIcEEEP7requestSt4lessIS5_ESaISt4pairIKS5_S7_EEEC2Ev = comdat any

$_ZNSt3mapINSt7__cxx1112basic_stringIcSt11char_traitsIcESaIcEEEP7requestSt4lessIS5_ESaISt4pairIKS5_S7_EEED2Ev = comdat any

$_ZNSt8multimapIlP7requestSt4lessIlESaISt4pairIKlS1_EEEC2Ev = comdat any

$_ZNSt8multimapIlP7requestSt4lessIlESaISt4pairIKlS1_EEED2Ev = comdat any

$_ZNSt3mapINSt7__cxx1112basic_stringIcSt11char_traitsIcESaIcEEEP7requestSt4lessIS5_ESaISt4pairIKS5_S7_EEEixEOS5_ = comdat any

$_ZNSt3mapINSt7__cxx1112basic_stringIcSt11char_traitsIcESaIcEEEP7requestSt4lessIS5_ESaISt4pairIKS5_S7_EEE5eraseERSB_ = comdat any

$_ZNSt8multimapIlP7requestSt4lessIlESaISt4pairIKlS1_EEE6insertIS4_IlS1_EEENSt9enable_ifIXsr16is_constructibleIS6_T_EE5valueESt17_Rb_tree_iteratorIS6_EE4typeEOSC_ = comdat any

$_ZNSt4pairIlP7requestEC2IRlRS1_Lb1EEEOT_OT0_ = comdat any

$_ZNSt8multimapIlP7requestSt4lessIlESaISt4pairIKlS1_EEE5beginEv = comdat any

$_ZNSt17_Rb_tree_iteratorISt4pairIKlP7requestEEC2Ev = comdat any

$_ZNKSt17_Rb_tree_iteratorISt4pairIKlP7requestEEneERKS5_ = comdat any

$_ZNSt8multimapIlP7requestSt4lessIlESaISt4pairIKlS1_EEE3endEv = comdat any

$_ZNKSt17_Rb_tree_iteratorISt4pairIKlP7requestEEptEv = comdat any

$_ZNSt17_Rb_tree_iteratorISt4pairIKlP7requestEEppEi = comdat any

$_ZNSt8multimapIlP7requestSt4lessIlESaISt4pairIKlS1_EEE5eraseB5cxx11ESt17_Rb_tree_iteratorIS6_E = comdat any

$_ZSt3powIijEN9__gnu_cxx11__promote_2IT_T0_NS0_9__promoteIS2_Xsr3std12__is_integerIS2_EE7__valueEE6__typeENS4_IS3_Xsr3std12__is_integerIS3_EE7__valueEE6__typeEE6__typeES2_S3_ = comdat any

$_ZNSt8_Rb_treeINSt7__cxx1112basic_stringIcSt11char_traitsIcESaIcEEESt4pairIKS5_P7requestESt10_Select1stISA_ESt4lessIS5_ESaISA_EEC2Ev = comdat any

$_ZNSt8_Rb_treeINSt7__cxx1112basic_stringIcSt11char_traitsIcESaIcEEESt4pairIKS5_P7requestESt10_Select1stISA_ESt4lessIS5_ESaISA_EE13_Rb_tree_implISE_Lb1EEC2Ev = comdat any

$_ZNSaISt13_Rb_tree_nodeISt4pairIKNSt7__cxx1112basic_stringIcSt11char_traitsIcESaIcEEEP7requestEEEC2Ev = comdat any

$_ZNSt20_Rb_tree_key_compareISt4lessINSt7__cxx1112basic_stringIcSt11char_traitsIcESaIcEEEEEC2Ev = comdat any

$_ZNSt15_Rb_tree_headerC2Ev = comdat any

$_ZN9__gnu_cxx13new_allocatorISt13_Rb_tree_nodeISt4pairIKNSt7__cxx1112basic_stringIcSt11char_traitsIcESaIcEEEP7requestEEEC2Ev = comdat any

$_ZNSt15_Rb_tree_header8_M_resetEv = comdat any

$__clang_call_terminate = comdat any

$_ZNSt8_Rb_treeINSt7__cxx1112basic_stringIcSt11char_traitsIcESaIcEEESt4pairIKS5_P7requestESt10_Select1stISA_ESt4lessIS5_ESaISA_EED2Ev = comdat any

$_ZNSt8_Rb_treeINSt7__cxx1112basic_stringIcSt11char_traitsIcESaIcEEESt4pairIKS5_P7requestESt10_Select1stISA_ESt4lessIS5_ESaISA_EE8_M_eraseEPSt13_Rb_tree_nodeISA_E = comdat any

$_ZNSt8_Rb_treeINSt7__cxx1112basic_stringIcSt11char_traitsIcESaIcEEESt4pairIKS5_P7requestESt10_Select1stISA_ESt4lessIS5_ESaISA_EE8_M_beginEv = comdat any

$_ZNSt8_Rb_treeINSt7__cxx1112basic_stringIcSt11char_traitsIcESaIcEEESt4pairIKS5_P7requestESt10_Select1stISA_ESt4lessIS5_ESaISA_EE13_Rb_tree_implISE_Lb1EED2Ev = comdat any

$_ZNSt8_Rb_treeINSt7__cxx1112basic_stringIcSt11char_traitsIcESaIcEEESt4pairIKS5_P7requestESt10_Select1stISA_ESt4lessIS5_ESaISA_EE8_S_rightEPSt18_Rb_tree_node_base = comdat any

$_ZNSt8_Rb_treeINSt7__cxx1112basic_stringIcSt11char_traitsIcESaIcEEESt4pairIKS5_P7requestESt10_Select1stISA_ESt4lessIS5_ESaISA_EE7_S_leftEPSt18_Rb_tree_node_base = comdat any

$_ZNSt8_Rb_treeINSt7__cxx1112basic_stringIcSt11char_traitsIcESaIcEEESt4pairIKS5_P7requestESt10_Select1stISA_ESt4lessIS5_ESaISA_EE12_M_drop_nodeEPSt13_Rb_tree_nodeISA_E = comdat any

$_ZNSt8_Rb_treeINSt7__cxx1112basic_stringIcSt11char_traitsIcESaIcEEESt4pairIKS5_P7requestESt10_Select1stISA_ESt4lessIS5_ESaISA_EE15_M_destroy_nodeEPSt13_Rb_tree_nodeISA_E = comdat any

$_ZNSt8_Rb_treeINSt7__cxx1112basic_stringIcSt11char_traitsIcESaIcEEESt4pairIKS5_P7requestESt10_Select1stISA_ESt4lessIS5_ESaISA_EE11_M_put_nodeEPSt13_Rb_tree_nodeISA_E = comdat any

$_ZNSt16allocator_traitsISaISt13_Rb_tree_nodeISt4pairIKNSt7__cxx1112basic_stringIcSt11char_traitsIcESaIcEEEP7requestEEEE7destroyISB_EEvRSD_PT_ = comdat any

$_ZNSt8_Rb_treeINSt7__cxx1112basic_stringIcSt11char_traitsIcESaIcEEESt4pairIKS5_P7requestESt10_Select1stISA_ESt4lessIS5_ESaISA_EE21_M_get_Node_allocatorEv = comdat any

$_ZNSt13_Rb_tree_nodeISt4pairIKNSt7__cxx1112basic_stringIcSt11char_traitsIcESaIcEEEP7requestEE9_M_valptrEv = comdat any

$_ZN9__gnu_cxx13new_allocatorISt13_Rb_tree_nodeISt4pairIKNSt7__cxx1112basic_stringIcSt11char_traitsIcESaIcEEEP7requestEEE7destroyISC_EEvPT_ = comdat any

$_ZNSt4pairIKNSt7__cxx1112basic_stringIcSt11char_traitsIcESaIcEEEP7requestED2Ev = comdat any

$_ZN9__gnu_cxx16__aligned_membufISt4pairIKNSt7__cxx1112basic_stringIcSt11char_traitsIcESaIcEEEP7requestEE6_M_ptrEv = comdat any

$_ZN9__gnu_cxx16__aligned_membufISt4pairIKNSt7__cxx1112basic_stringIcSt11char_traitsIcESaIcEEEP7requestEE7_M_addrEv = comdat any

$_ZNSt16allocator_traitsISaISt13_Rb_tree_nodeISt4pairIKNSt7__cxx1112basic_stringIcSt11char_traitsIcESaIcEEEP7requestEEEE10deallocateERSD_PSC_m = comdat any

$_ZN9__gnu_cxx13new_allocatorISt13_Rb_tree_nodeISt4pairIKNSt7__cxx1112basic_stringIcSt11char_traitsIcESaIcEEEP7requestEEE10deallocateEPSD_m = comdat any

$_ZNSaISt13_Rb_tree_nodeISt4pairIKNSt7__cxx1112basic_stringIcSt11char_traitsIcESaIcEEEP7requestEEED2Ev = comdat any

$_ZN9__gnu_cxx13new_allocatorISt13_Rb_tree_nodeISt4pairIKNSt7__cxx1112basic_stringIcSt11char_traitsIcESaIcEEEP7requestEEED2Ev = comdat any

$_ZNSt8_Rb_treeIlSt4pairIKlP7requestESt10_Select1stIS4_ESt4lessIlESaIS4_EEC2Ev = comdat any

$_ZNSt8_Rb_treeIlSt4pairIKlP7requestESt10_Select1stIS4_ESt4lessIlESaIS4_EE13_Rb_tree_implIS8_Lb1EEC2Ev = comdat any

$_ZNSaISt13_Rb_tree_nodeISt4pairIKlP7requestEEEC2Ev = comdat any

$_ZNSt20_Rb_tree_key_compareISt4lessIlEEC2Ev = comdat any

$_ZN9__gnu_cxx13new_allocatorISt13_Rb_tree_nodeISt4pairIKlP7requestEEEC2Ev = comdat any

$_ZNSt8_Rb_treeIlSt4pairIKlP7requestESt10_Select1stIS4_ESt4lessIlESaIS4_EED2Ev = comdat any

$_ZNSt8_Rb_treeIlSt4pairIKlP7requestESt10_Select1stIS4_ESt4lessIlESaIS4_EE8_M_eraseEPSt13_Rb_tree_nodeIS4_E = comdat any

$_ZNSt8_Rb_treeIlSt4pairIKlP7requestESt10_Select1stIS4_ESt4lessIlESaIS4_EE8_M_beginEv = comdat any

$_ZNSt8_Rb_treeIlSt4pairIKlP7requestESt10_Select1stIS4_ESt4lessIlESaIS4_EE13_Rb_tree_implIS8_Lb1EED2Ev = comdat any

$_ZNSt8_Rb_treeIlSt4pairIKlP7requestESt10_Select1stIS4_ESt4lessIlESaIS4_EE8_S_rightEPSt18_Rb_tree_node_base = comdat any

$_ZNSt8_Rb_treeIlSt4pairIKlP7requestESt10_Select1stIS4_ESt4lessIlESaIS4_EE7_S_leftEPSt18_Rb_tree_node_base = comdat any

$_ZNSt8_Rb_treeIlSt4pairIKlP7requestESt10_Select1stIS4_ESt4lessIlESaIS4_EE12_M_drop_nodeEPSt13_Rb_tree_nodeIS4_E = comdat any

$_ZNSt8_Rb_treeIlSt4pairIKlP7requestESt10_Select1stIS4_ESt4lessIlESaIS4_EE15_M_destroy_nodeEPSt13_Rb_tree_nodeIS4_E = comdat any

$_ZNSt8_Rb_treeIlSt4pairIKlP7requestESt10_Select1stIS4_ESt4lessIlESaIS4_EE11_M_put_nodeEPSt13_Rb_tree_nodeIS4_E = comdat any

$_ZNSt16allocator_traitsISaISt13_Rb_tree_nodeISt4pairIKlP7requestEEEE7destroyIS5_EEvRS7_PT_ = comdat any

$_ZNSt8_Rb_treeIlSt4pairIKlP7requestESt10_Select1stIS4_ESt4lessIlESaIS4_EE21_M_get_Node_allocatorEv = comdat any

$_ZNSt13_Rb_tree_nodeISt4pairIKlP7requestEE9_M_valptrEv = comdat any

$_ZN9__gnu_cxx13new_allocatorISt13_Rb_tree_nodeISt4pairIKlP7requestEEE7destroyIS6_EEvPT_ = comdat any

$_ZN9__gnu_cxx16__aligned_membufISt4pairIKlP7requestEE6_M_ptrEv = comdat any

$_ZN9__gnu_cxx16__aligned_membufISt4pairIKlP7requestEE7_M_addrEv = comdat any

$_ZNSt16allocator_traitsISaISt13_Rb_tree_nodeISt4pairIKlP7requestEEEE10deallocateERS7_PS6_m = comdat any

$_ZN9__gnu_cxx13new_allocatorISt13_Rb_tree_nodeISt4pairIKlP7requestEEE10deallocateEPS7_m = comdat any

$_ZNSaISt13_Rb_tree_nodeISt4pairIKlP7requestEEED2Ev = comdat any

$_ZN9__gnu_cxx13new_allocatorISt13_Rb_tree_nodeISt4pairIKlP7requestEEED2Ev = comdat any

$_ZSt7forwardIRlEOT_RNSt16remove_referenceIS1_E4typeE = comdat any

$_ZSt7forwardIRP7requestEOT_RNSt16remove_referenceIS3_E4typeE = comdat any

$_ZNSt3mapINSt7__cxx1112basic_stringIcSt11char_traitsIcESaIcEEEP7requestSt4lessIS5_ESaISt4pairIKS5_S7_EEE11lower_boundERSB_ = comdat any

$_ZNKSt17_Rb_tree_iteratorISt4pairIKNSt7__cxx1112basic_stringIcSt11char_traitsIcESaIcEEEP7requestEEeqERKSB_ = comdat any

$_ZNSt3mapINSt7__cxx1112basic_stringIcSt11char_traitsIcESaIcEEEP7requestSt4lessIS5_ESaISt4pairIKS5_S7_EEE3endEv = comdat any

$_ZNKSt3mapINSt7__cxx1112basic_stringIcSt11char_traitsIcESaIcEEEP7requestSt4lessIS5_ESaISt4pairIKS5_S7_EEE8key_compEv = comdat any

$_ZNKSt4lessINSt7__cxx1112basic_stringIcSt11char_traitsIcESaIcEEEEclERKS5_S8_ = comdat any

$_ZNKSt17_Rb_tree_iteratorISt4pairIKNSt7__cxx1112basic_stringIcSt11char_traitsIcESaIcEEEP7requestEEdeEv = comdat any

$_ZNSt8_Rb_treeINSt7__cxx1112basic_stringIcSt11char_traitsIcESaIcEEESt4pairIKS5_P7requestESt10_Select1stISA_ESt4lessIS5_ESaISA_EE22_M_emplace_hint_uniqueIJRKSt21piecewise_construct_tSt5tupleIJOS5_EESL_IJEEEEESt17_Rb_tree_iteratorISA_ESt23_Rb_tree_const_iteratorISA_EDpOT_ = comdat any

$_ZNSt23_Rb_tree_const_iteratorISt4pairIKNSt7__cxx1112basic_stringIcSt11char_traitsIcESaIcEEEP7requestEEC2ERKSt17_Rb_tree_iteratorISA_E = comdat any

$_ZSt16forward_as_tupleIJNSt7__cxx1112basic_stringIcSt11char_traitsIcESaIcEEEEESt5tupleIJDpOT_EES9_ = comdat any

$_ZSt4moveIRNSt7__cxx1112basic_stringIcSt11char_traitsIcESaIcEEEEONSt16remove_referenceIT_E4typeEOS8_ = comdat any

$_ZNSt8_Rb_treeINSt7__cxx1112basic_stringIcSt11char_traitsIcESaIcEEESt4pairIKS5_P7requestESt10_Select1stISA_ESt4lessIS5_ESaISA_EE11lower_boundERS7_ = comdat any

$_ZNSt8_Rb_treeINSt7__cxx1112basic_stringIcSt11char_traitsIcESaIcEEESt4pairIKS5_P7requestESt10_Select1stISA_ESt4lessIS5_ESaISA_EE14_M_lower_boundEPSt13_Rb_tree_nodeISA_EPSt18_Rb_tree_node_baseRS7_ = comdat any

$_ZNSt8_Rb_treeINSt7__cxx1112basic_stringIcSt11char_traitsIcESaIcEEESt4pairIKS5_P7requestESt10_Select1stISA_ESt4lessIS5_ESaISA_EE6_M_endEv = comdat any

$_ZNSt8_Rb_treeINSt7__cxx1112basic_stringIcSt11char_traitsIcESaIcEEESt4pairIKS5_P7requestESt10_Select1stISA_ESt4lessIS5_ESaISA_EE6_S_keyEPKSt13_Rb_tree_nodeISA_E = comdat any

$_ZNSt17_Rb_tree_iteratorISt4pairIKNSt7__cxx1112basic_stringIcSt11char_traitsIcESaIcEEEP7requestEEC2EPSt18_Rb_tree_node_base = comdat any

$_ZNKSt10_Select1stISt4pairIKNSt7__cxx1112basic_stringIcSt11char_traitsIcESaIcEEEP7requestEEclERKSA_ = comdat any

$_ZNSt8_Rb_treeINSt7__cxx1112basic_stringIcSt11char_traitsIcESaIcEEESt4pairIKS5_P7requestESt10_Select1stISA_ESt4lessIS5_ESaISA_EE8_S_valueEPKSt13_Rb_tree_nodeISA_E = comdat any

$_ZNKSt13_Rb_tree_nodeISt4pairIKNSt7__cxx1112basic_stringIcSt11char_traitsIcESaIcEEEP7requestEE9_M_valptrEv = comdat any

$_ZNK9__gnu_cxx16__aligned_membufISt4pairIKNSt7__cxx1112basic_stringIcSt11char_traitsIcESaIcEEEP7requestEE6_M_ptrEv = comdat any

$_ZNK9__gnu_cxx16__aligned_membufISt4pairIKNSt7__cxx1112basic_stringIcSt11char_traitsIcESaIcEEEP7requestEE7_M_addrEv = comdat any

$_ZNSt8_Rb_treeINSt7__cxx1112basic_stringIcSt11char_traitsIcESaIcEEESt4pairIKS5_P7requestESt10_Select1stISA_ESt4lessIS5_ESaISA_EE3endEv = comdat any

$_ZNKSt8_Rb_treeINSt7__cxx1112basic_stringIcSt11char_traitsIcESaIcEEESt4pairIKS5_P7requestESt10_Select1stISA_ESt4lessIS5_ESaISA_EE8key_compEv = comdat any

$_ZStltIcSt11char_traitsIcESaIcEEbRKNSt7__cxx1112basic_stringIT_T0_T1_EESA_ = comdat any

$_ZNSt8_Rb_treeINSt7__cxx1112basic_stringIcSt11char_traitsIcESaIcEEESt4pairIKS5_P7requestESt10_Select1stISA_ESt4lessIS5_ESaISA_EE14_M_create_nodeIJRKSt21piecewise_construct_tSt5tupleIJOS5_EESL_IJEEEEEPSt13_Rb_tree_nodeISA_EDpOT_ = comdat any

$_ZSt7forwardIRKSt21piecewise_construct_tEOT_RNSt16remove_referenceIS3_E4typeE = comdat any

$_ZSt7forwardISt5tupleIJONSt7__cxx1112basic_stringIcSt11char_traitsIcESaIcEEEEEEOT_RNSt16remove_referenceIS9_E4typeE = comdat any

$_ZSt7forwardISt5tupleIJEEEOT_RNSt16remove_referenceIS2_E4typeE = comdat any

$_ZNSt8_Rb_treeINSt7__cxx1112basic_stringIcSt11char_traitsIcESaIcEEESt4pairIKS5_P7requestESt10_Select1stISA_ESt4lessIS5_ESaISA_EE29_M_get_insert_hint_unique_posESt23_Rb_tree_const_iteratorISA_ERS7_ = comdat any

$_ZNSt8_Rb_treeINSt7__cxx1112basic_stringIcSt11char_traitsIcESaIcEEESt4pairIKS5_P7requestESt10_Select1stISA_ESt4lessIS5_ESaISA_EE14_M_insert_nodeEPSt18_Rb_tree_node_baseSI_PSt13_Rb_tree_nodeISA_E = comdat any

$_ZNSt8_Rb_treeINSt7__cxx1112basic_stringIcSt11char_traitsIcESaIcEEESt4pairIKS5_P7requestESt10_Select1stISA_ESt4lessIS5_ESaISA_EE11_M_get_nodeEv = comdat any

$_ZNSt8_Rb_treeINSt7__cxx1112basic_stringIcSt11char_traitsIcESaIcEEESt4pairIKS5_P7requestESt10_Select1stISA_ESt4lessIS5_ESaISA_EE17_M_construct_nodeIJRKSt21piecewise_construct_tSt5tupleIJOS5_EESL_IJEEEEEvPSt13_Rb_tree_nodeISA_EDpOT_ = comdat any

$_ZNSt16allocator_traitsISaISt13_Rb_tree_nodeISt4pairIKNSt7__cxx1112basic_stringIcSt11char_traitsIcESaIcEEEP7requestEEEE8allocateERSD_m = comdat any

$_ZN9__gnu_cxx13new_allocatorISt13_Rb_tree_nodeISt4pairIKNSt7__cxx1112basic_stringIcSt11char_traitsIcESaIcEEEP7requestEEE8allocateEmPKv = comdat any

$_ZNK9__gnu_cxx13new_allocatorISt13_Rb_tree_nodeISt4pairIKNSt7__cxx1112basic_stringIcSt11char_traitsIcESaIcEEEP7requestEEE8max_sizeEv = comdat any

$_ZNSt16allocator_traitsISaISt13_Rb_tree_nodeISt4pairIKNSt7__cxx1112basic_stringIcSt11char_traitsIcESaIcEEEP7requestEEEE9constructISB_JRKSt21piecewise_construct_tSt5tupleIJOS7_EESJ_IJEEEEEvRSD_PT_DpOT0_ = comdat any

$_ZN9__gnu_cxx13new_allocatorISt13_Rb_tree_nodeISt4pairIKNSt7__cxx1112basic_stringIcSt11char_traitsIcESaIcEEEP7requestEEE9constructISC_JRKSt21piecewise_construct_tSt5tupleIJOS8_EESJ_IJEEEEEvPT_DpOT0_ = comdat any

$_ZNSt5tupleIJONSt7__cxx1112basic_stringIcSt11char_traitsIcESaIcEEEEEC2EOS7_ = comdat any

$_ZNSt4pairIKNSt7__cxx1112basic_stringIcSt11char_traitsIcESaIcEEEP7requestEC2IJOS5_EJEEESt21piecewise_construct_tSt5tupleIJDpT_EESD_IJDpT0_EE = comdat any

$_ZNSt11_Tuple_implILm0EJONSt7__cxx1112basic_stringIcSt11char_traitsIcESaIcEEEEEC2EOS7_ = comdat any

$_ZSt7forwardIONSt7__cxx1112basic_stringIcSt11char_traitsIcESaIcEEEEOT_RNSt16remove_referenceIS7_E4typeE = comdat any

$_ZNSt11_Tuple_implILm0EJONSt7__cxx1112basic_stringIcSt11char_traitsIcESaIcEEEEE7_M_headERS7_ = comdat any

$_ZNSt10_Head_baseILm0EONSt7__cxx1112basic_stringIcSt11char_traitsIcESaIcEEELb0EEC2IS5_EEOT_ = comdat any

$_ZNSt10_Head_baseILm0EONSt7__cxx1112basic_stringIcSt11char_traitsIcESaIcEEELb0EE7_M_headERS7_ = comdat any

$_ZSt7forwardINSt7__cxx1112basic_stringIcSt11char_traitsIcESaIcEEEEOT_RNSt16remove_referenceIS6_E4typeE = comdat any

$_ZNSt4pairIKNSt7__cxx1112basic_stringIcSt11char_traitsIcESaIcEEEP7requestEC2IJOS5_EJLm0EEJEJEEERSt5tupleIJDpT_EERSC_IJDpT1_EESt12_Index_tupleIJXspT0_EEESL_IJXspT2_EEE = comdat any

$_ZSt3getILm0EJONSt7__cxx1112basic_stringIcSt11char_traitsIcESaIcEEEEERNSt13tuple_elementIXT_ESt5tupleIJDpT0_EEE4typeERSB_ = comdat any

$_ZSt12__get_helperILm0EONSt7__cxx1112basic_stringIcSt11char_traitsIcESaIcEEEJEERT0_RSt11_Tuple_implIXT_EJS7_DpT1_EE = comdat any

$_ZNKSt23_Rb_tree_const_iteratorISt4pairIKNSt7__cxx1112basic_stringIcSt11char_traitsIcESaIcEEEP7requestEE13_M_const_castEv = comdat any

$_ZNKSt8_Rb_treeINSt7__cxx1112basic_stringIcSt11char_traitsIcESaIcEEESt4pairIKS5_P7requestESt10_Select1stISA_ESt4lessIS5_ESaISA_EE4sizeEv = comdat any

$_ZNSt8_Rb_treeINSt7__cxx1112basic_stringIcSt11char_traitsIcESaIcEEESt4pairIKS5_P7requestESt10_Select1stISA_ESt4lessIS5_ESaISA_EE6_S_keyEPKSt18_Rb_tree_node_base = comdat any

$_ZNSt8_Rb_treeINSt7__cxx1112basic_stringIcSt11char_traitsIcESaIcEEESt4pairIKS5_P7requestESt10_Select1stISA_ESt4lessIS5_ESaISA_EE12_M_rightmostEv = comdat any

$_ZNSt4pairIPSt18_Rb_tree_node_baseS1_EC2IRS1_Lb1EEERKS1_OT_ = comdat any

$_ZNSt8_Rb_treeINSt7__cxx1112basic_stringIcSt11char_traitsIcESaIcEEESt4pairIKS5_P7requestESt10_Select1stISA_ESt4lessIS5_ESaISA_EE24_M_get_insert_unique_posERS7_ = comdat any

$_ZNSt8_Rb_treeINSt7__cxx1112basic_stringIcSt11char_traitsIcESaIcEEESt4pairIKS5_P7requestESt10_Select1stISA_ESt4lessIS5_ESaISA_EE11_M_leftmostEv = comdat any

$_ZNSt4pairIPSt18_Rb_tree_node_baseS1_EC2IRS1_S4_Lb1EEEOT_OT0_ = comdat any

$_ZNSt17_Rb_tree_iteratorISt4pairIKNSt7__cxx1112basic_stringIcSt11char_traitsIcESaIcEEEP7requestEEmmEv = comdat any

$_ZNSt17_Rb_tree_iteratorISt4pairIKNSt7__cxx1112basic_stringIcSt11char_traitsIcESaIcEEEP7requestEEppEv = comdat any

$_ZNSt4pairIPSt18_Rb_tree_node_baseS1_EC2IRS1_Lb1EEEOT_RKS1_ = comdat any

$_ZNSt8_Rb_treeINSt7__cxx1112basic_stringIcSt11char_traitsIcESaIcEEESt4pairIKS5_P7requestESt10_Select1stISA_ESt4lessIS5_ESaISA_EE8_S_valueEPKSt18_Rb_tree_node_base = comdat any

$_ZSt7forwardIRPSt18_Rb_tree_node_baseEOT_RNSt16remove_referenceIS3_E4typeE = comdat any

$_ZNSt8_Rb_treeINSt7__cxx1112basic_stringIcSt11char_traitsIcESaIcEEESt4pairIKS5_P7requestESt10_Select1stISA_ESt4lessIS5_ESaISA_EE5beginEv = comdat any

$_ZNSt4pairIPSt18_Rb_tree_node_baseS1_EC2IRPSt13_Rb_tree_nodeIS_IKNSt7__cxx1112basic_stringIcSt11char_traitsIcESaIcEEEP7requestEERS1_Lb1EEEOT_OT0_ = comdat any

$_ZSt7forwardIRPSt13_Rb_tree_nodeISt4pairIKNSt7__cxx1112basic_stringIcSt11char_traitsIcESaIcEEEP7requestEEEOT_RNSt16remove_referenceISF_E4typeE = comdat any

$_ZNSt5tupleIJONSt7__cxx1112basic_stringIcSt11char_traitsIcESaIcEEEEEC2IJS5_ELb1EEEDpOT_ = comdat any

$_ZNSt11_Tuple_implILm0EJONSt7__cxx1112basic_stringIcSt11char_traitsIcESaIcEEEEEC2IS5_EEOT_ = comdat any

$_ZNSt8_Rb_treeINSt7__cxx1112basic_stringIcSt11char_traitsIcESaIcEEESt4pairIKS5_P7requestESt10_Select1stISA_ESt4lessIS5_ESaISA_EE5eraseERS7_ = comdat any

$_ZNSt8_Rb_treeINSt7__cxx1112basic_stringIcSt11char_traitsIcESaIcEEESt4pairIKS5_P7requestESt10_Select1stISA_ESt4lessIS5_ESaISA_EE11equal_rangeERS7_ = comdat any

$_ZNSt8_Rb_treeINSt7__cxx1112basic_stringIcSt11char_traitsIcESaIcEEESt4pairIKS5_P7requestESt10_Select1stISA_ESt4lessIS5_ESaISA_EE12_M_erase_auxESt23_Rb_tree_const_iteratorISA_ESI_ = comdat any

$_ZNSt8_Rb_treeINSt7__cxx1112basic_stringIcSt11char_traitsIcESaIcEEESt4pairIKS5_P7requestESt10_Select1stISA_ESt4lessIS5_ESaISA_EE14_M_upper_boundEPSt13_Rb_tree_nodeISA_EPSt18_Rb_tree_node_baseRS7_ = comdat any

$_ZNSt4pairISt17_Rb_tree_iteratorIS_IKNSt7__cxx1112basic_stringIcSt11char_traitsIcESaIcEEEP7requestEESB_EC2ISB_SB_Lb1EEEOT_OT0_ = comdat any

$_ZSt7forwardISt17_Rb_tree_iteratorISt4pairIKNSt7__cxx1112basic_stringIcSt11char_traitsIcESaIcEEEP7requestEEEOT_RNSt16remove_referenceISD_E4typeE = comdat any

$_ZNKSt23_Rb_tree_const_iteratorISt4pairIKNSt7__cxx1112basic_stringIcSt11char_traitsIcESaIcEEEP7requestEEeqERKSB_ = comdat any

$_ZNSt8_Rb_treeINSt7__cxx1112basic_stringIcSt11char_traitsIcESaIcEEESt4pairIKS5_P7requestESt10_Select1stISA_ESt4lessIS5_ESaISA_EE5clearEv = comdat any

$_ZNKSt23_Rb_tree_const_iteratorISt4pairIKNSt7__cxx1112basic_stringIcSt11char_traitsIcESaIcEEEP7requestEEneERKSB_ = comdat any

$_ZNSt8_Rb_treeINSt7__cxx1112basic_stringIcSt11char_traitsIcESaIcEEESt4pairIKS5_P7requestESt10_Select1stISA_ESt4lessIS5_ESaISA_EE12_M_erase_auxESt23_Rb_tree_const_iteratorISA_E = comdat any

$_ZNSt23_Rb_tree_const_iteratorISt4pairIKNSt7__cxx1112basic_stringIcSt11char_traitsIcESaIcEEEP7requestEEppEi = comdat any

$_ZNSt8_Rb_treeIlSt4pairIKlP7requestESt10_Select1stIS4_ESt4lessIlESaIS4_EE16_M_emplace_equalIJS0_IlS3_EEEESt17_Rb_tree_iteratorIS4_EDpOT_ = comdat any

$_ZSt7forwardISt4pairIlP7requestEEOT_RNSt16remove_referenceIS4_E4typeE = comdat any

$_ZNSt8_Rb_treeIlSt4pairIKlP7requestESt10_Select1stIS4_ESt4lessIlESaIS4_EE14_M_create_nodeIJS0_IlS3_EEEEPSt13_Rb_tree_nodeIS4_EDpOT_ = comdat any

$_ZNSt8_Rb_treeIlSt4pairIKlP7requestESt10_Select1stIS4_ESt4lessIlESaIS4_EE23_M_get_insert_equal_posERS1_ = comdat any

$_ZNSt8_Rb_treeIlSt4pairIKlP7requestESt10_Select1stIS4_ESt4lessIlESaIS4_EE6_S_keyEPKSt13_Rb_tree_nodeIS4_E = comdat any

$_ZNSt8_Rb_treeIlSt4pairIKlP7requestESt10_Select1stIS4_ESt4lessIlESaIS4_EE14_M_insert_nodeEPSt18_Rb_tree_node_baseSC_PSt13_Rb_tree_nodeIS4_E = comdat any

$_ZNSt8_Rb_treeIlSt4pairIKlP7requestESt10_Select1stIS4_ESt4lessIlESaIS4_EE11_M_get_nodeEv = comdat any

$_ZNSt8_Rb_treeIlSt4pairIKlP7requestESt10_Select1stIS4_ESt4lessIlESaIS4_EE17_M_construct_nodeIJS0_IlS3_EEEEvPSt13_Rb_tree_nodeIS4_EDpOT_ = comdat any

$_ZNSt16allocator_traitsISaISt13_Rb_tree_nodeISt4pairIKlP7requestEEEE8allocateERS7_m = comdat any

$_ZN9__gnu_cxx13new_allocatorISt13_Rb_tree_nodeISt4pairIKlP7requestEEE8allocateEmPKv = comdat any

$_ZNK9__gnu_cxx13new_allocatorISt13_Rb_tree_nodeISt4pairIKlP7requestEEE8max_sizeEv = comdat any

$_ZNSt16allocator_traitsISaISt13_Rb_tree_nodeISt4pairIKlP7requestEEEE9constructIS5_JS1_IlS4_EEEEvRS7_PT_DpOT0_ = comdat any

$_ZN9__gnu_cxx13new_allocatorISt13_Rb_tree_nodeISt4pairIKlP7requestEEE9constructIS6_JS2_IlS5_EEEEvPT_DpOT0_ = comdat any

$_ZNSt4pairIKlP7requestEC2IlS2_Lb1EEEOS_IT_T0_E = comdat any

$_ZSt7forwardIlEOT_RNSt16remove_referenceIS0_E4typeE = comdat any

$_ZSt7forwardIP7requestEOT_RNSt16remove_referenceIS2_E4typeE = comdat any

$_ZNSt8_Rb_treeIlSt4pairIKlP7requestESt10_Select1stIS4_ESt4lessIlESaIS4_EE6_M_endEv = comdat any

$_ZNKSt4lessIlEclERKlS2_ = comdat any

$_ZNSt4pairIPSt18_Rb_tree_node_baseS1_EC2IRPSt13_Rb_tree_nodeIS_IKlP7requestEERS1_Lb1EEEOT_OT0_ = comdat any

$_ZSt7forwardIRPSt13_Rb_tree_nodeISt4pairIKlP7requestEEEOT_RNSt16remove_referenceIS9_E4typeE = comdat any

$_ZNKSt10_Select1stISt4pairIKlP7requestEEclERKS4_ = comdat any

$_ZNSt8_Rb_treeIlSt4pairIKlP7requestESt10_Select1stIS4_ESt4lessIlESaIS4_EE8_S_valueEPKSt13_Rb_tree_nodeIS4_E = comdat any

$_ZNKSt13_Rb_tree_nodeISt4pairIKlP7requestEE9_M_valptrEv = comdat any

$_ZNK9__gnu_cxx16__aligned_membufISt4pairIKlP7requestEE6_M_ptrEv = comdat any

$_ZNK9__gnu_cxx16__aligned_membufISt4pairIKlP7requestEE7_M_addrEv = comdat any

$_ZNSt8_Rb_treeIlSt4pairIKlP7requestESt10_Select1stIS4_ESt4lessIlESaIS4_EE6_S_keyEPKSt18_Rb_tree_node_base = comdat any

$_ZNSt17_Rb_tree_iteratorISt4pairIKlP7requestEEC2EPSt18_Rb_tree_node_base = comdat any

$_ZNSt8_Rb_treeIlSt4pairIKlP7requestESt10_Select1stIS4_ESt4lessIlESaIS4_EE8_S_valueEPKSt18_Rb_tree_node_base = comdat any

$_ZNSt8_Rb_treeIlSt4pairIKlP7requestESt10_Select1stIS4_ESt4lessIlESaIS4_EE5beginEv = comdat any

$_ZNSt8_Rb_treeIlSt4pairIKlP7requestESt10_Select1stIS4_ESt4lessIlESaIS4_EE3endEv = comdat any

$_ZNSt8_Rb_treeIlSt4pairIKlP7requestESt10_Select1stIS4_ESt4lessIlESaIS4_EE5eraseB5cxx11ESt17_Rb_tree_iteratorIS4_E = comdat any

$_ZNSt17_Rb_tree_iteratorISt4pairIKlP7requestEEppEv = comdat any

$_ZNSt8_Rb_treeIlSt4pairIKlP7requestESt10_Select1stIS4_ESt4lessIlESaIS4_EE12_M_erase_auxESt23_Rb_tree_const_iteratorIS4_E = comdat any

$_ZNSt23_Rb_tree_const_iteratorISt4pairIKlP7requestEEC2ERKSt17_Rb_tree_iteratorIS4_E = comdat any

@kRunning = global i8 1, align 1
@_Z9tftpCacheB5cxx11 = global %"class.std::map" zeroinitializer, align 8
@__dso_handle = external hidden global i8
@tftpAge = global %"class.std::multimap" zeroinitializer, align 8
@verbatim = global i8 0, align 1
@iniFile = global [256 x i8] zeroinitializer, align 16
@logFile = global [256 x i8] zeroinitializer, align 16
@fileSep = global i8 47, align 1
@notFileSep = global i8 92, align 1
@blksize = global i16 -72, align 2
@timeout = global i16 3, align 2
@network = global %struct.data1 zeroinitializer, align 4
@newNetwork = global %struct.data1 zeroinitializer, align 4
@cfig = global %struct.data2 zeroinitializer, align 8
@Ifc = global %struct.ifconf zeroinitializer, align 8
@IfcBuf = global [8 x %struct.ifreq] zeroinitializer, align 16
@tempbuff = global [256 x i8] zeroinitializer, align 16
@extbuff = global [256 x i8] zeroinitializer, align 16
@logBuff = global [512 x i8] zeroinitializer, align 16
@loggingDay = global i16 0, align 2
@sVersion = global [52 x i8] c"TFTP Server SinglePort Version 1.66 Unix Built 2003\00", align 16
@datain = global %struct.packet* null, align 8
@.str = private unnamed_addr constant [3 x i8] c"-v\00", align 1
@.str.2 = private unnamed_addr constant [3 x i8] c"-i\00", align 1
@.str.3 = private unnamed_addr constant [3 x i8] c"-l\00", align 1
@.str.4 = private unnamed_addr constant [27 x i8] c"Error: Invalid Argument %s\00", align 1
@.str.5 = private unnamed_addr constant [18 x i8] c"/etc/opentftp.ini\00", align 1
@.str.6 = private unnamed_addr constant [4 x i8] c"%s\0A\00", align 1
@.str.7 = private unnamed_addr constant [49 x i8] c"Error: Main Thread Creation Failed with error %s\00", align 1
@.str.8 = private unnamed_addr constant [13 x i8] c"Memory Error\00", align 1
@.str.9 = private unnamed_addr constant [6 x i8] c"%s:%u\00", align 1
@.str.10 = private unnamed_addr constant [33 x i8] c"Error: Incoming Packet too large\00", align 1
@.str.11 = private unnamed_addr constant [23 x i8] c"Error %i at Client, %s\00", align 1
@.str.12 = private unnamed_addr constant [26 x i8] c"Unexpected Option Code %u\00", align 1
@.str.13 = private unnamed_addr constant [20 x i8] c"Unknown transfer ID\00", align 1
@.str.14 = private unnamed_addr constant [52 x i8] c"Large File, Block# Rollover not supported by Client\00", align 1
@.str.15 = private unnamed_addr constant [8 x i8] c"Timeout\00", align 1
@.str.16 = private unnamed_addr constant [31 x i8] c"closing Network Connections...\00", align 1
@.str.17 = private unnamed_addr constant [22 x i8] c"TFTP Server Stopped !\00", align 1
@.str.18 = private unnamed_addr constant [2 x i8] c"/\00", align 1
@.str.19 = private unnamed_addr constant [14 x i8] c"Access Denied\00", align 1
@.str.20 = private unnamed_addr constant [44 x i8] c"Malformed Request, Invalid/Missing Filename\00", align 1
@.str.21 = private unnamed_addr constant [40 x i8] c"Malformed Request, Invalid/Missing Mode\00", align 1
@.str.22 = private unnamed_addr constant [17 x i8] c"Access violation\00", align 1
@.str.23 = private unnamed_addr constant [19 x i8] c"Filename too large\00", align 1
@.str.24 = private unnamed_addr constant [24 x i8] c"Missing directory/alias\00", align 1
@.str.25 = private unnamed_addr constant [27 x i8] c"No such directory/alias %s\00", align 1
@.str.26 = private unnamed_addr constant [18 x i8] c"GET Access Denied\00", align 1
@.str.27 = private unnamed_addr constant [8 x i8] c"blksize\00", align 1
@.str.28 = private unnamed_addr constant [9 x i8] c"netascii\00", align 1
@.str.29 = private unnamed_addr constant [6 x i8] c"ascii\00", align 1
@.str.30 = private unnamed_addr constant [3 x i8] c"rt\00", align 1
@.str.31 = private unnamed_addr constant [3 x i8] c"rb\00", align 1
@.str.32 = private unnamed_addr constant [23 x i8] c"No Such File/No Access\00", align 1
@.str.33 = private unnamed_addr constant [18 x i8] c"PUT Access Denied\00", align 1
@.str.34 = private unnamed_addr constant [20 x i8] c"File already exists\00", align 1
@.str.35 = private unnamed_addr constant [26 x i8] c"Create File Access Denied\00", align 1
@.str.36 = private unnamed_addr constant [3 x i8] c"wb\00", align 1
@.str.37 = private unnamed_addr constant [3 x i8] c"wt\00", align 1
@.str.38 = private unnamed_addr constant [26 x i8] c"Invalid Path or No Access\00", align 1
@.str.39 = private unnamed_addr constant [3 x i8] c"%u\00", align 1
@.str.40 = private unnamed_addr constant [6 x i8] c"tsize\00", align 1
@.str.41 = private unnamed_addr constant [8 x i8] c"timeout\00", align 1
@.str.42 = private unnamed_addr constant [20 x i8] c"Communication Error\00", align 1
@.str.43 = private unnamed_addr constant [31 x i8] c"Client %s %s, %i Blocks Served\00", align 1
@.str.44 = private unnamed_addr constant [33 x i8] c"Disk full or allocation exceeded\00", align 1
@.str.45 = private unnamed_addr constant [33 x i8] c"Client %s %s, %u Blocks Received\00", align 1
@.str.46 = private unnamed_addr constant [5 x i8] c"[%s]\00", align 1
@.str.47 = private unnamed_addr constant [2 x i8] c"[\00", align 1
@.str.48 = private unnamed_addr constant [5 x i8] c"/\\?*\00", align 1
@.str.49 = private unnamed_addr constant [3 x i8] c"%s\00", align 1
@.str.50 = private unnamed_addr constant [12 x i8] c"%u.%u.%u.%u\00", align 1
@.str.51 = private unnamed_addr constant [5 x i8] c"%s\0A\0A\00", align 1
@.str.52 = private unnamed_addr constant [8 x i8] c"LOGGING\00", align 1
@.str.53 = private unnamed_addr constant [5 x i8] c"None\00", align 1
@.str.54 = private unnamed_addr constant [7 x i8] c"Errors\00", align 1
@.str.55 = private unnamed_addr constant [4 x i8] c"All\00", align 1
@.str.56 = private unnamed_addr constant [40 x i8] c"Section [LOGGING], Invalid LogLevel: %s\00", align 1
@.str.57 = private unnamed_addr constant [3 x i8] c"at\00", align 1
@.str.58 = private unnamed_addr constant [14 x i8] c"%s Starting..\00", align 1
@.str.59 = private unnamed_addr constant [50 x i8] c"Warning: file %s not found, defaults will be used\00", align 1
@.str.60 = private unnamed_addr constant [5 x i8] c"HOME\00", align 1
@.str.61 = private unnamed_addr constant [60 x i8] c"Section [HOME], alias and bare path mixup, entry %s ignored\00", align 1
@.str.62 = private unnamed_addr constant [57 x i8] c"Section [HOME], invalid chars in alias %s, entry ignored\00", align 1
@.str.63 = private unnamed_addr constant [44 x i8] c"Section [HOME], Duplicate Entry: %s ignored\00", align 1
@.str.64 = private unnamed_addr constant [40 x i8] c"Section [HOME], alias name %s too large\00", align 1
@.str.65 = private unnamed_addr constant [43 x i8] c"Section [HOME], Duplicate Path: %s ignored\00", align 1
@.str.66 = private unnamed_addr constant [58 x i8] c"Section [HOME], missing = sign, Invalid Entry: %s ignored\00", align 1
@.str.67 = private unnamed_addr constant [13 x i8] c"TFTP-OPTIONS\00", align 1
@.str.68 = private unnamed_addr constant [9 x i8] c"UserName\00", align 1
@.str.69 = private unnamed_addr constant [4 x i8] c"%s/\00", align 1
@.str.70 = private unnamed_addr constant [7 x i8] c"/home/\00", align 1
@.str.71 = private unnamed_addr constant [55 x i8] c"Section [TFTP-OPTIONS], unknown username: %s, stopping\00", align 1
@.str.72 = private unnamed_addr constant [55 x i8] c"Section [TFTP-OPTIONS], invalid username: %s, stopping\00", align 1
@.str.73 = private unnamed_addr constant [5 x i8] c"Read\00", align 1
@.str.74 = private unnamed_addr constant [3 x i8] c"Yy\00", align 1
@.str.75 = private unnamed_addr constant [6 x i8] c"Write\00", align 1
@.str.76 = private unnamed_addr constant [10 x i8] c"Overwrite\00", align 1
@.str.77 = private unnamed_addr constant [36 x i8] c"Warning: unknown option %s, ignored\00", align 1
@.str.78 = private unnamed_addr constant [16 x i8] c"ALLOWED-CLIENTS\00", align 1
@.str.79 = private unnamed_addr constant [64 x i8] c"Section [ALLOWED-CLIENTS] Invalid entry %s in ini file, ignored\00", align 1
@.str.80 = private unnamed_addr constant [13 x i8] c"username: %s\00", align 1
@.str.81 = private unnamed_addr constant [26 x i8] c"alias /%s is mapped to %s\00", align 1
@.str.82 = private unnamed_addr constant [20 x i8] c"permitted clients: \00", align 1
@.str.83 = private unnamed_addr constant [4 x i8] c"%s-\00", align 1
@.str.84 = private unnamed_addr constant [23 x i8] c"permitted clients: all\00", align 1
@.str.85 = private unnamed_addr constant [16 x i8] c"max blksize: %u\00", align 1
@.str.86 = private unnamed_addr constant [20 x i8] c"default blksize: %u\00", align 1
@.str.87 = private unnamed_addr constant [20 x i8] c"default timeout: %u\00", align 1
@.str.88 = private unnamed_addr constant [22 x i8] c"file read allowed: %s\00", align 1
@.str.89 = private unnamed_addr constant [4 x i8] c"Yes\00", align 1
@.str.90 = private unnamed_addr constant [3 x i8] c"No\00", align 1
@.str.91 = private unnamed_addr constant [24 x i8] c"file create allowed: %s\00", align 1
@.str.92 = private unnamed_addr constant [27 x i8] c"file overwrite allowed: %s\00", align 1
@.str.93 = private unnamed_addr constant [12 x i8] c"logging: %s\00", align 1
@.str.94 = private unnamed_addr constant [4 x i8] c"all\00", align 1
@.str.95 = private unnamed_addr constant [7 x i8] c"errors\00", align 1
@.str.96 = private unnamed_addr constant [24 x i8] c"Failed to Create Socket\00", align 1
@.str.97 = private unnamed_addr constant [10 x i8] c"LISTEN-ON\00", align 1
@.str.98 = private unnamed_addr constant [68 x i8] c"Warning: Section [LISTEN-ON], Invalid Interface Address %s, ignored\00", align 1
@.str.99 = private unnamed_addr constant [23 x i8] c"detecting Interfaces..\00", align 1
@.str.100 = private unnamed_addr constant [27 x i8] c"%s Port %i bind failed, %s\00", align 1
@.str.101 = private unnamed_addr constant [38 x i8] c"No Static Interface ready, Waiting...\00", align 1
@.str.102 = private unnamed_addr constant [20 x i8] c"listening on: %s:%i\00", align 1
@.str.103 = private unnamed_addr constant [53 x i8] c"Network changed, re-detecting Listening Interfaces..\00", align 1
@.str.104 = private unnamed_addr constant [39 x i8] c"Retrying failed Listening Interfaces..\00", align 1
@.str.105 = private unnamed_addr constant [30 x i8] c"Logging Continued on file %s\0A\00", align 1
@.str.106 = private unnamed_addr constant [12 x i8] c"%d-%b-%y %X\00", align 1
@.str.107 = private unnamed_addr constant [9 x i8] c"[%s] %s\0A\00", align 1
@.str.108 = private unnamed_addr constant [21 x i8] c"Client %s:%u %s, %s\0A\00", align 1
@.str.109 = private unnamed_addr constant [18 x i8] c"Client %s:%u, %s\0A\00", align 1
@.str.110 = private unnamed_addr constant [26 x i8] c"[%s] Client %s:%u %s, %s\0A\00", align 1
@.str.111 = private unnamed_addr constant [23 x i8] c"[%s] Client %s:%u, %s\0A\00", align 1
@_ZStL19piecewise_construct = internal constant %"struct.std::piecewise_construct_t" undef, align 1
@llvm.global_ctors = appending global [1 x { i32, void ()*, i8* }] [{ i32, void ()*, i8* } { i32 65535, void ()* @_GLOBAL__sub_I_opentftpd.cpp, i8* null }]

; Function Attrs: noinline uwtable
define internal void @__cxx_global_var_init() #0 section ".text.startup" {
  call void @_ZNSt3mapINSt7__cxx1112basic_stringIcSt11char_traitsIcESaIcEEEP7requestSt4lessIS5_ESaISt4pairIKS5_S7_EEEC2Ev(%"class.std::map"* @_Z9tftpCacheB5cxx11) #2
  %1 = call i32 @__cxa_atexit(void (i8*)* bitcast (void (%"class.std::map"*)* @_ZNSt3mapINSt7__cxx1112basic_stringIcSt11char_traitsIcESaIcEEEP7requestSt4lessIS5_ESaISt4pairIKS5_S7_EEED2Ev to void (i8*)*), i8* getelementptr inbounds (%"class.std::map", %"class.std::map"* @_Z9tftpCacheB5cxx11, i32 0, i32 0, i32 0, i32 0, i32 0, i32 0), i8* @__dso_handle) #2
  ret void
}

; Function Attrs: noinline nounwind optnone uwtable
define linkonce_odr void @_ZNSt3mapINSt7__cxx1112basic_stringIcSt11char_traitsIcESaIcEEEP7requestSt4lessIS5_ESaISt4pairIKS5_S7_EEEC2Ev(%"class.std::map"* %0) unnamed_addr #1 comdat align 2 {
  %2 = alloca %"class.std::map"*, align 8
  store %"class.std::map"* %0, %"class.std::map"** %2, align 8
  %3 = load %"class.std::map"*, %"class.std::map"** %2, align 8
  %4 = getelementptr inbounds %"class.std::map", %"class.std::map"* %3, i32 0, i32 0
  call void @_ZNSt8_Rb_treeINSt7__cxx1112basic_stringIcSt11char_traitsIcESaIcEEESt4pairIKS5_P7requestESt10_Select1stISA_ESt4lessIS5_ESaISA_EEC2Ev(%"class.std::_Rb_tree"* %4) #2
  ret void
}

; Function Attrs: noinline nounwind optnone uwtable
define linkonce_odr void @_ZNSt3mapINSt7__cxx1112basic_stringIcSt11char_traitsIcESaIcEEEP7requestSt4lessIS5_ESaISt4pairIKS5_S7_EEED2Ev(%"class.std::map"* %0) unnamed_addr #1 comdat align 2 {
  %2 = alloca %"class.std::map"*, align 8
  store %"class.std::map"* %0, %"class.std::map"** %2, align 8
  %3 = load %"class.std::map"*, %"class.std::map"** %2, align 8
  %4 = getelementptr inbounds %"class.std::map", %"class.std::map"* %3, i32 0, i32 0
  call void @_ZNSt8_Rb_treeINSt7__cxx1112basic_stringIcSt11char_traitsIcESaIcEEESt4pairIKS5_P7requestESt10_Select1stISA_ESt4lessIS5_ESaISA_EED2Ev(%"class.std::_Rb_tree"* %4) #2
  ret void
}

; Function Attrs: nounwind
declare i32 @__cxa_atexit(void (i8*)*, i8*, i8*) #2

; Function Attrs: noinline uwtable
define internal void @__cxx_global_var_init.1() #0 section ".text.startup" {
  call void @_ZNSt8multimapIlP7requestSt4lessIlESaISt4pairIKlS1_EEEC2Ev(%"class.std::multimap"* @tftpAge) #2
  %1 = call i32 @__cxa_atexit(void (i8*)* bitcast (void (%"class.std::multimap"*)* @_ZNSt8multimapIlP7requestSt4lessIlESaISt4pairIKlS1_EEED2Ev to void (i8*)*), i8* getelementptr inbounds (%"class.std::multimap", %"class.std::multimap"* @tftpAge, i32 0, i32 0, i32 0, i32 0, i32 0, i32 0), i8* @__dso_handle) #2
  ret void
}

; Function Attrs: noinline nounwind optnone uwtable
define linkonce_odr void @_ZNSt8multimapIlP7requestSt4lessIlESaISt4pairIKlS1_EEEC2Ev(%"class.std::multimap"* %0) unnamed_addr #1 comdat align 2 {
  %2 = alloca %"class.std::multimap"*, align 8
  store %"class.std::multimap"* %0, %"class.std::multimap"** %2, align 8
  %3 = load %"class.std::multimap"*, %"class.std::multimap"** %2, align 8
  %4 = getelementptr inbounds %"class.std::multimap", %"class.std::multimap"* %3, i32 0, i32 0
  call void @_ZNSt8_Rb_treeIlSt4pairIKlP7requestESt10_Select1stIS4_ESt4lessIlESaIS4_EEC2Ev(%"class.std::_Rb_tree.0"* %4) #2
  ret void
}

; Function Attrs: noinline nounwind optnone uwtable
define linkonce_odr void @_ZNSt8multimapIlP7requestSt4lessIlESaISt4pairIKlS1_EEED2Ev(%"class.std::multimap"* %0) unnamed_addr #1 comdat align 2 {
  %2 = alloca %"class.std::multimap"*, align 8
  store %"class.std::multimap"* %0, %"class.std::multimap"** %2, align 8
  %3 = load %"class.std::multimap"*, %"class.std::multimap"** %2, align 8
  %4 = getelementptr inbounds %"class.std::multimap", %"class.std::multimap"* %3, i32 0, i32 0
  call void @_ZNSt8_Rb_treeIlSt4pairIKlP7requestESt10_Select1stIS4_ESt4lessIlESaIS4_EED2Ev(%"class.std::_Rb_tree.0"* %4) #2
  ret void
}

; Function Attrs: noinline norecurse optnone uwtable
define i32 @main(i32 %0, i8** %1) #3 personality i8* bitcast (i32 (...)* @__gxx_personality_v0 to i8*) {
  %3 = alloca i32, align 4
  %4 = alloca i32, align 4
  %5 = alloca i8**, align 8
  %6 = alloca i32, align 4
  %7 = alloca i64, align 8
  %8 = alloca %union.pthread_attr_t, align 8
  %9 = alloca i32, align 4
  %10 = alloca %struct.timeval, align 8
  %11 = alloca %struct.fd_set, align 8
  %12 = alloca %struct.request, align 8
  %13 = alloca i32, align 4
  %14 = alloca i32, align 4
  %15 = alloca i32, align 4
  %16 = alloca i32, align 4
  %17 = alloca i32, align 4
  %18 = alloca %struct.in_addr, align 4
  %19 = alloca %struct.request*, align 8
  %20 = alloca %"class.std::__cxx11::basic_string", align 8
  %21 = alloca %"class.std::allocator.10", align 1
  %22 = alloca i8*
  %23 = alloca i32
  %24 = alloca %"class.std::__cxx11::basic_string", align 8
  %25 = alloca %"class.std::allocator.10", align 1
  %26 = alloca %struct.request*, align 8
  %27 = alloca %"class.std::__cxx11::basic_string", align 8
  %28 = alloca %"class.std::allocator.10", align 1
  %29 = alloca %"struct.std::pair", align 8
  %30 = alloca %"struct.std::_Rb_tree_iterator", align 8
  %31 = alloca %"struct.std::_Rb_tree_iterator", align 8
  %32 = alloca %"struct.std::_Rb_tree_iterator", align 8
  %33 = alloca i64, align 8
  %34 = alloca %struct.request*, align 8
  %35 = alloca %"struct.std::_Rb_tree_iterator", align 8
  %36 = alloca %"struct.std::_Rb_tree_iterator", align 8
  %37 = alloca %"struct.std::_Rb_tree_iterator", align 8
  %38 = alloca %"struct.std::_Rb_tree_iterator", align 8
  %39 = alloca %"struct.std::pair", align 8
  %40 = alloca %"struct.std::_Rb_tree_iterator", align 8
  %41 = alloca %"struct.std::_Rb_tree_iterator", align 8
  %42 = alloca %"struct.std::_Rb_tree_iterator", align 8
  %43 = alloca %"struct.std::_Rb_tree_iterator", align 8
  %44 = alloca %"class.std::__cxx11::basic_string", align 8
  %45 = alloca %"class.std::allocator.10", align 1
  %46 = alloca %"struct.std::_Rb_tree_iterator", align 8
  %47 = alloca %"struct.std::_Rb_tree_iterator", align 8
  %48 = alloca i32, align 4
  %49 = alloca i32, align 4
  %50 = alloca i64, align 8
  %51 = alloca %union.pthread_attr_t, align 8
  %52 = alloca i32, align 4
  %53 = alloca %struct.timeval, align 8
  %54 = alloca %struct.fd_set, align 8
  %55 = alloca %struct.request, align 8
  %56 = alloca i32, align 4
  %57 = alloca i32, align 4
  %58 = alloca i32, align 4
  %59 = alloca i32, align 4
  %60 = alloca i32, align 4
  %61 = alloca %struct.in_addr, align 4
  %62 = alloca %struct.request*, align 8
  %63 = alloca %"class.std::__cxx11::basic_string", align 8
  %64 = alloca %"class.std::allocator.10", align 1
  %65 = alloca %"class.std::__cxx11::basic_string", align 8
  %66 = alloca %"class.std::allocator.10", align 1
  %67 = alloca %struct.request*, align 8
  %68 = alloca %"class.std::__cxx11::basic_string", align 8
  %69 = alloca %"class.std::allocator.10", align 1
  %70 = alloca %"struct.std::pair", align 8
  %71 = alloca %"struct.std::_Rb_tree_iterator", align 8
  %72 = alloca %"struct.std::_Rb_tree_iterator", align 8
  %73 = alloca %"struct.std::_Rb_tree_iterator", align 8
  %74 = alloca i64, align 8
  %75 = alloca %struct.request*, align 8
  %76 = alloca %"struct.std::_Rb_tree_iterator", align 8
  %77 = alloca %"struct.std::_Rb_tree_iterator", align 8
  %78 = alloca %"struct.std::_Rb_tree_iterator", align 8
  %79 = alloca %"struct.std::_Rb_tree_iterator", align 8
  %80 = alloca %"struct.std::pair", align 8
  %81 = alloca %"struct.std::_Rb_tree_iterator", align 8
  %82 = alloca %"struct.std::_Rb_tree_iterator", align 8
  %83 = alloca %"struct.std::_Rb_tree_iterator", align 8
  %84 = alloca %"struct.std::_Rb_tree_iterator", align 8
  %85 = alloca %"class.std::__cxx11::basic_string", align 8
  %86 = alloca %"class.std::allocator.10", align 1
  %87 = alloca %"struct.std::_Rb_tree_iterator", align 8
  %88 = alloca %"struct.std::_Rb_tree_iterator", align 8
  store i32 0, i32* %3, align 4
  store i32 %0, i32* %4, align 4
  store i8** %1, i8*** %5, align 8
  %89 = call void (i32)* @signal(i32 2, void (i32)* @_Z9catch_inti) #2
  %90 = call void (i32)* @signal(i32 6, void (i32)* @_Z9catch_inti) #2
  %91 = call void (i32)* @signal(i32 15, void (i32)* @_Z9catch_inti) #2
  %92 = call void (i32)* @signal(i32 3, void (i32)* @_Z9catch_inti) #2
  %93 = call void (i32)* @signal(i32 20, void (i32)* @_Z9catch_inti) #2
  %94 = call void (i32)* @signal(i32 1, void (i32)* @_Z9catch_inti) #2
  store i8 0, i8* getelementptr inbounds ([512 x i8], [512 x i8]* @logBuff, i64 0, i64 0), align 16
  store i32 1, i32* %6, align 4
  br label %95

95:                                               ; preds = %220, %2
  %96 = load i32, i32* %6, align 4
  %97 = load i32, i32* %4, align 4
  %98 = icmp slt i32 %96, %97
  br i1 %98, label %99, label %223

99:                                               ; preds = %95
  %100 = load i8**, i8*** %5, align 8
  %101 = load i32, i32* %6, align 4
  %102 = sext i32 %101 to i64
  %103 = getelementptr inbounds i8*, i8** %100, i64 %102
  %104 = load i8*, i8** %103, align 8
  %105 = call i32 @strcasecmp(i8* %104, i8* getelementptr inbounds ([3 x i8], [3 x i8]* @.str, i32 0, i32 0)) #16
  %106 = icmp ne i32 %105, 0
  br i1 %106, label %108, label %107

107:                                              ; preds = %99
  store i8 1, i8* @verbatim, align 1
  br label %219

108:                                              ; preds = %99
  %109 = load i8**, i8*** %5, align 8
  %110 = load i32, i32* %6, align 4
  %111 = sext i32 %110 to i64
  %112 = getelementptr inbounds i8*, i8** %109, i64 %111
  %113 = load i8*, i8** %112, align 8
  %114 = call i32 @strcmp(i8* %113, i8* getelementptr inbounds ([3 x i8], [3 x i8]* @.str.2, i32 0, i32 0)) #16
  %115 = icmp ne i32 %114, 0
  br i1 %115, label %142, label %116

116:                                              ; preds = %108
  %117 = load i32, i32* %4, align 4
  %118 = load i32, i32* %6, align 4
  %119 = add nsw i32 %118, 1
  %120 = icmp sgt i32 %117, %119
  br i1 %120, label %121, label %142

121:                                              ; preds = %116
  %122 = load i8**, i8*** %5, align 8
  %123 = load i32, i32* %6, align 4
  %124 = add nsw i32 %123, 1
  %125 = sext i32 %124 to i64
  %126 = getelementptr inbounds i8*, i8** %122, i64 %125
  %127 = load i8*, i8** %126, align 8
  %128 = getelementptr inbounds i8, i8* %127, i64 0
  %129 = load i8, i8* %128, align 1
  %130 = sext i8 %129 to i32
  %131 = icmp ne i32 %130, 45
  br i1 %131, label %132, label %142

132:                                              ; preds = %121
  %133 = load i8**, i8*** %5, align 8
  %134 = load i32, i32* %6, align 4
  %135 = add nsw i32 %134, 1
  %136 = sext i32 %135 to i64
  %137 = getelementptr inbounds i8*, i8** %133, i64 %136
  %138 = load i8*, i8** %137, align 8
  %139 = call i8* @_Z6myTrimPcS_(i8* getelementptr inbounds ([256 x i8], [256 x i8]* @iniFile, i32 0, i32 0), i8* %138)
  %140 = load i32, i32* %6, align 4
  %141 = add nsw i32 %140, 1
  store i32 %141, i32* %6, align 4
  br label %218

142:                                              ; preds = %121, %116, %108
  %143 = load i8**, i8*** %5, align 8
  %144 = load i32, i32* %6, align 4
  %145 = sext i32 %144 to i64
  %146 = getelementptr inbounds i8*, i8** %143, i64 %145
  %147 = load i8*, i8** %146, align 8
  %148 = call i32 @strcmp(i8* %147, i8* getelementptr inbounds ([3 x i8], [3 x i8]* @.str.3, i32 0, i32 0)) #16
  %149 = icmp ne i32 %148, 0
  br i1 %149, label %176, label %150

150:                                              ; preds = %142
  %151 = load i32, i32* %4, align 4
  %152 = load i32, i32* %6, align 4
  %153 = add nsw i32 %152, 1
  %154 = icmp sgt i32 %151, %153
  br i1 %154, label %155, label %176

155:                                              ; preds = %150
  %156 = load i8**, i8*** %5, align 8
  %157 = load i32, i32* %6, align 4
  %158 = add nsw i32 %157, 1
  %159 = sext i32 %158 to i64
  %160 = getelementptr inbounds i8*, i8** %156, i64 %159
  %161 = load i8*, i8** %160, align 8
  %162 = getelementptr inbounds i8, i8* %161, i64 0
  %163 = load i8, i8* %162, align 1
  %164 = sext i8 %163 to i32
  %165 = icmp ne i32 %164, 45
  br i1 %165, label %166, label %176

166:                                              ; preds = %155
  %167 = load i8**, i8*** %5, align 8
  %168 = load i32, i32* %6, align 4
  %169 = add nsw i32 %168, 1
  %170 = sext i32 %169 to i64
  %171 = getelementptr inbounds i8*, i8** %167, i64 %170
  %172 = load i8*, i8** %171, align 8
  %173 = call i8* @_Z6myTrimPcS_(i8* getelementptr inbounds ([256 x i8], [256 x i8]* @logFile, i32 0, i32 0), i8* %172)
  %174 = load i32, i32* %6, align 4
  %175 = add nsw i32 %174, 1
  store i32 %175, i32* %6, align 4
  br label %217

176:                                              ; preds = %155, %150, %142
  %177 = load i8**, i8*** %5, align 8
  %178 = load i32, i32* %6, align 4
  %179 = sext i32 %178 to i64
  %180 = getelementptr inbounds i8*, i8** %177, i64 %179
  %181 = load i8*, i8** %180, align 8
  %182 = call i32 @strncasecmp(i8* %181, i8* getelementptr inbounds ([3 x i8], [3 x i8]* @.str.2, i32 0, i32 0), i64 2) #16
  %183 = icmp ne i32 %182, 0
  br i1 %183, label %192, label %184

184:                                              ; preds = %176
  %185 = load i8**, i8*** %5, align 8
  %186 = load i32, i32* %6, align 4
  %187 = sext i32 %186 to i64
  %188 = getelementptr inbounds i8*, i8** %185, i64 %187
  %189 = load i8*, i8** %188, align 8
  %190 = getelementptr inbounds i8, i8* %189, i64 2
  %191 = call i8* @_Z6myTrimPcS_(i8* getelementptr inbounds ([256 x i8], [256 x i8]* @iniFile, i32 0, i32 0), i8* %190)
  br label %216

192:                                              ; preds = %176
  %193 = load i8**, i8*** %5, align 8
  %194 = load i32, i32* %6, align 4
  %195 = sext i32 %194 to i64
  %196 = getelementptr inbounds i8*, i8** %193, i64 %195
  %197 = load i8*, i8** %196, align 8
  %198 = call i32 @strncasecmp(i8* %197, i8* getelementptr inbounds ([3 x i8], [3 x i8]* @.str.3, i32 0, i32 0), i64 2) #16
  %199 = icmp ne i32 %198, 0
  br i1 %199, label %208, label %200

200:                                              ; preds = %192
  %201 = load i8**, i8*** %5, align 8
  %202 = load i32, i32* %6, align 4
  %203 = sext i32 %202 to i64
  %204 = getelementptr inbounds i8*, i8** %201, i64 %203
  %205 = load i8*, i8** %204, align 8
  %206 = getelementptr inbounds i8, i8* %205, i64 2
  %207 = call i8* @_Z6myTrimPcS_(i8* getelementptr inbounds ([256 x i8], [256 x i8]* @logFile, i32 0, i32 0), i8* %206)
  br label %215

208:                                              ; preds = %192
  %209 = load i8**, i8*** %5, align 8
  %210 = load i32, i32* %6, align 4
  %211 = sext i32 %210 to i64
  %212 = getelementptr inbounds i8*, i8** %209, i64 %211
  %213 = load i8*, i8** %212, align 8
  %214 = call i32 (i8*, i8*, ...) @sprintf(i8* getelementptr inbounds ([512 x i8], [512 x i8]* @logBuff, i32 0, i32 0), i8* getelementptr inbounds ([27 x i8], [27 x i8]* @.str.4, i32 0, i32 0), i8* %213) #2
  br label %215

215:                                              ; preds = %208, %200
  br label %216

216:                                              ; preds = %215, %184
  br label %217

217:                                              ; preds = %216, %166
  br label %218

218:                                              ; preds = %217, %132
  br label %219

219:                                              ; preds = %218, %107
  br label %220

220:                                              ; preds = %219
  %221 = load i32, i32* %6, align 4
  %222 = add nsw i32 %221, 1
  store i32 %222, i32* %6, align 4
  br label %95

223:                                              ; preds = %95
  %224 = load i8, i8* getelementptr inbounds ([256 x i8], [256 x i8]* @iniFile, i64 0, i64 0), align 16
  %225 = icmp ne i8 %224, 0
  br i1 %225, label %228, label %226

226:                                              ; preds = %223
  %227 = call i8* @strcpy(i8* getelementptr inbounds ([256 x i8], [256 x i8]* @iniFile, i32 0, i32 0), i8* getelementptr inbounds ([18 x i8], [18 x i8]* @.str.5, i32 0, i32 0)) #2
  br label %228

228:                                              ; preds = %226, %223
  %229 = load i8, i8* @verbatim, align 1
  %230 = trunc i8 %229 to i1
  br i1 %230, label %231, label %1195

231:                                              ; preds = %228
  %232 = load i8, i8* getelementptr inbounds ([512 x i8], [512 x i8]* @logBuff, i64 0, i64 0), align 16
  %233 = icmp ne i8 %232, 0
  br i1 %233, label %234, label %236

234:                                              ; preds = %231
  %235 = call i32 (i8*, ...) @printf(i8* getelementptr inbounds ([4 x i8], [4 x i8]* @.str.6, i32 0, i32 0), i8* getelementptr inbounds ([512 x i8], [512 x i8]* @logBuff, i32 0, i32 0))
  call void @exit(i32 1) #17
  unreachable

236:                                              ; preds = %231
  %237 = call i32 @pthread_attr_init(%union.pthread_attr_t* %8) #2
  %238 = call i32 @pthread_attr_setdetachstate(%union.pthread_attr_t* %8, i32 1) #2
  %239 = call i32 @pthread_create(i64* %7, %union.pthread_attr_t* %8, i8* (i8*)* @_Z4initPv, i8* null) #2
  store i32 %239, i32* %9, align 4
  %240 = call i32 @pthread_attr_destroy(%union.pthread_attr_t* %8) #2
  %241 = load i32, i32* %9, align 4
  %242 = icmp ne i32 %241, 0
  br i1 %242, label %243, label %247

243:                                              ; preds = %236
  %244 = load i32, i32* %9, align 4
  %245 = call i8* @strerror(i32 %244) #2
  %246 = call i32 (i8*, i8*, ...) @sprintf(i8* getelementptr inbounds ([512 x i8], [512 x i8]* @logBuff, i32 0, i32 0), i8* getelementptr inbounds ([49 x i8], [49 x i8]* @.str.7, i32 0, i32 0), i8* %245) #2
  call void @_Z7logMessPch(i8* getelementptr inbounds ([512 x i8], [512 x i8]* @logBuff, i32 0, i32 0), i8 zeroext 1)
  call void @exit(i32 1) #17
  unreachable

247:                                              ; preds = %236
  %248 = load i16, i16* @blksize, align 2
  %249 = zext i16 %248 to i32
  %250 = add nsw i32 %249, 4
  %251 = sext i32 %250 to i64
  %252 = call noalias i8* @calloc(i64 1, i64 %251) #2
  %253 = bitcast i8* %252 to %struct.packet*
  store %struct.packet* %253, %struct.packet** @datain, align 8
  store i32 0, i32* %13, align 4
  %254 = load %struct.packet*, %struct.packet** @datain, align 8
  %255 = icmp ne %struct.packet* %254, null
  br i1 %255, label %258, label %256

256:                                              ; preds = %247
  %257 = call i32 (i8*, i8*, ...) @sprintf(i8* getelementptr inbounds ([512 x i8], [512 x i8]* @logBuff, i32 0, i32 0), i8* getelementptr inbounds ([13 x i8], [13 x i8]* @.str.8, i32 0, i32 0)) #2
  call void @_Z7logMessPch(i8* getelementptr inbounds ([512 x i8], [512 x i8]* @logBuff, i32 0, i32 0), i8 zeroext 0)
  call void @exit(i32 1) #17
  unreachable

258:                                              ; preds = %247
  br label %259

259:                                              ; preds = %268, %258
  %260 = load i8, i8* @kRunning, align 1
  %261 = trunc i8 %260 to i1
  br i1 %261, label %262, label %266

262:                                              ; preds = %259
  %263 = load i8, i8* getelementptr inbounds (%struct.data1, %struct.data1* @network, i32 0, i32 5), align 4
  %264 = trunc i8 %263 to i1
  %265 = xor i1 %264, true
  br label %266

266:                                              ; preds = %262, %259
  %267 = phi i1 [ false, %259 ], [ %265, %262 ]
  br i1 %267, label %268, label %270

268:                                              ; preds = %266
  %269 = call i32 @sleep(i32 1)
  br label %259

270:                                              ; preds = %266
  %271 = load i32, i32* getelementptr inbounds (%struct.data2, %struct.data2* @cfig, i32 0, i32 4), align 8
  %272 = call i32 @setuid(i32 %271) #2
  %273 = load i32, i32* getelementptr inbounds (%struct.data2, %struct.data2* @cfig, i32 0, i32 5), align 4
  %274 = call i32 @setgid(i32 %273) #2
  br label %275

275:                                              ; preds = %1181, %270
  store i8 0, i8* getelementptr inbounds (%struct.data1, %struct.data1* @network, i32 0, i32 6), align 1
  %276 = load i8, i8* getelementptr inbounds (%struct.data1, %struct.data1* @network, i32 0, i32 5), align 4
  %277 = trunc i8 %276 to i1
  br i1 %277, label %280, label %278

278:                                              ; preds = %275
  %279 = call i32 @sleep(i32 1)
  br label %1181

280:                                              ; preds = %275
  br label %281

281:                                              ; preds = %280
  %282 = getelementptr inbounds %struct.fd_set, %struct.fd_set* %11, i32 0, i32 0
  %283 = getelementptr inbounds [16 x i64], [16 x i64]* %282, i64 0, i64 0
  %284 = call { i64, i64* } asm sideeffect "cld; rep; stosq", "={cx},={di},{ax},0,1,~{memory},~{dirflag},~{fpsr},~{flags}"(i32 0, i64 16, i64* %283) #2, !srcloc !2
  %285 = extractvalue { i64, i64* } %284, 0
  %286 = extractvalue { i64, i64* } %284, 1
  %287 = trunc i64 %285 to i32
  store i32 %287, i32* %14, align 4
  %288 = ptrtoint i64* %286 to i64
  %289 = trunc i64 %288 to i32
  store i32 %289, i32* %15, align 4
  br label %290

290:                                              ; preds = %281
  %291 = getelementptr inbounds %struct.timeval, %struct.timeval* %10, i32 0, i32 0
  store i64 1, i64* %291, align 8
  %292 = getelementptr inbounds %struct.timeval, %struct.timeval* %10, i32 0, i32 1
  store i64 0, i64* %292, align 8
  store i32 0, i32* %16, align 4
  br label %293

293:                                              ; preds = %325, %290
  %294 = load i32, i32* %16, align 4
  %295 = icmp slt i32 %294, 8
  br i1 %295, label %296, label %303

296:                                              ; preds = %293
  %297 = load i32, i32* %16, align 4
  %298 = sext i32 %297 to i64
  %299 = getelementptr inbounds [8 x %struct.tftpConnType], [8 x %struct.tftpConnType]* getelementptr inbounds (%struct.data1, %struct.data1* @network, i32 0, i32 0), i64 0, i64 %298
  %300 = getelementptr inbounds %struct.tftpConnType, %struct.tftpConnType* %299, i32 0, i32 4
  %301 = load i8, i8* %300, align 2
  %302 = trunc i8 %301 to i1
  br label %303

303:                                              ; preds = %296, %293
  %304 = phi i1 [ false, %293 ], [ %302, %296 ]
  br i1 %304, label %305, label %328

305:                                              ; preds = %303
  %306 = load i32, i32* %16, align 4
  %307 = sext i32 %306 to i64
  %308 = getelementptr inbounds [8 x %struct.tftpConnType], [8 x %struct.tftpConnType]* getelementptr inbounds (%struct.data1, %struct.data1* @network, i32 0, i32 0), i64 0, i64 %307
  %309 = getelementptr inbounds %struct.tftpConnType, %struct.tftpConnType* %308, i32 0, i32 0
  %310 = load i32, i32* %309, align 4
  %311 = srem i32 %310, 64
  %312 = zext i32 %311 to i64
  %313 = shl i64 1, %312
  %314 = getelementptr inbounds %struct.fd_set, %struct.fd_set* %11, i32 0, i32 0
  %315 = load i32, i32* %16, align 4
  %316 = sext i32 %315 to i64
  %317 = getelementptr inbounds [8 x %struct.tftpConnType], [8 x %struct.tftpConnType]* getelementptr inbounds (%struct.data1, %struct.data1* @network, i32 0, i32 0), i64 0, i64 %316
  %318 = getelementptr inbounds %struct.tftpConnType, %struct.tftpConnType* %317, i32 0, i32 0
  %319 = load i32, i32* %318, align 4
  %320 = sdiv i32 %319, 64
  %321 = sext i32 %320 to i64
  %322 = getelementptr inbounds [16 x i64], [16 x i64]* %314, i64 0, i64 %321
  %323 = load i64, i64* %322, align 8
  %324 = or i64 %323, %313
  store i64 %324, i64* %322, align 8
  br label %325

325:                                              ; preds = %305
  %326 = load i32, i32* %16, align 4
  %327 = add nsw i32 %326, 1
  store i32 %327, i32* %16, align 4
  br label %293

328:                                              ; preds = %303
  %329 = load i32, i32* getelementptr inbounds (%struct.data1, %struct.data1* @network, i32 0, i32 7), align 4
  %330 = call i32 @select(i32 %329, %struct.fd_set* %11, %struct.fd_set* null, %struct.fd_set* null, %struct.timeval* %10)
  store i32 %330, i32* %13, align 4
  store i32 0, i32* %17, align 4
  br label %331

331:                                              ; preds = %934, %328
  %332 = load i32, i32* %13, align 4
  %333 = icmp sgt i32 %332, 0
  br i1 %333, label %334, label %344

334:                                              ; preds = %331
  %335 = load i32, i32* %17, align 4
  %336 = icmp slt i32 %335, 8
  br i1 %336, label %337, label %344

337:                                              ; preds = %334
  %338 = load i32, i32* %17, align 4
  %339 = sext i32 %338 to i64
  %340 = getelementptr inbounds [8 x %struct.tftpConnType], [8 x %struct.tftpConnType]* getelementptr inbounds (%struct.data1, %struct.data1* @network, i32 0, i32 0), i64 0, i64 %339
  %341 = getelementptr inbounds %struct.tftpConnType, %struct.tftpConnType* %340, i32 0, i32 4
  %342 = load i8, i8* %341, align 2
  %343 = trunc i8 %342 to i1
  br label %344

344:                                              ; preds = %337, %334, %331
  %345 = phi i1 [ false, %334 ], [ false, %331 ], [ %343, %337 ]
  br i1 %345, label %346, label %937

346:                                              ; preds = %344
  %347 = load i8, i8* getelementptr inbounds (%struct.data1, %struct.data1* @network, i32 0, i32 5), align 4
  %348 = trunc i8 %347 to i1
  br i1 %348, label %349, label %933

349:                                              ; preds = %346
  store i8 1, i8* getelementptr inbounds (%struct.data1, %struct.data1* @network, i32 0, i32 6), align 1
  %350 = getelementptr inbounds %struct.fd_set, %struct.fd_set* %11, i32 0, i32 0
  %351 = load i32, i32* %17, align 4
  %352 = sext i32 %351 to i64
  %353 = getelementptr inbounds [8 x %struct.tftpConnType], [8 x %struct.tftpConnType]* getelementptr inbounds (%struct.data1, %struct.data1* @network, i32 0, i32 0), i64 0, i64 %352
  %354 = getelementptr inbounds %struct.tftpConnType, %struct.tftpConnType* %353, i32 0, i32 0
  %355 = load i32, i32* %354, align 4
  %356 = sdiv i32 %355, 64
  %357 = sext i32 %356 to i64
  %358 = getelementptr inbounds [16 x i64], [16 x i64]* %350, i64 0, i64 %357
  %359 = load i64, i64* %358, align 8
  %360 = load i32, i32* %17, align 4
  %361 = sext i32 %360 to i64
  %362 = getelementptr inbounds [8 x %struct.tftpConnType], [8 x %struct.tftpConnType]* getelementptr inbounds (%struct.data1, %struct.data1* @network, i32 0, i32 0), i64 0, i64 %361
  %363 = getelementptr inbounds %struct.tftpConnType, %struct.tftpConnType* %362, i32 0, i32 0
  %364 = load i32, i32* %363, align 4
  %365 = srem i32 %364, 64
  %366 = zext i32 %365 to i64
  %367 = shl i64 1, %366
  %368 = and i64 %359, %367
  %369 = icmp ne i64 %368, 0
  br i1 %369, label %370, label %932

370:                                              ; preds = %349
  %371 = load i32, i32* %13, align 4
  %372 = add nsw i32 %371, -1
  store i32 %372, i32* %13, align 4
  %373 = bitcast %struct.request* %12 to i8*
  call void @llvm.memset.p0i8.i64(i8* align 8 %373, i8 0, i64 920, i1 false)
  %374 = load %struct.packet*, %struct.packet** @datain, align 8
  %375 = bitcast %struct.packet* %374 to i8*
  %376 = load i16, i16* @blksize, align 2
  %377 = zext i16 %376 to i32
  %378 = add nsw i32 %377, 4
  %379 = sext i32 %378 to i64
  call void @llvm.memset.p0i8.i64(i8* align 2 %375, i8 0, i64 %379, i1 false)
  %380 = getelementptr inbounds %struct.request, %struct.request* %12, i32 0, i32 19
  store i32 16, i32* %380, align 8
  %381 = load i32, i32* %17, align 4
  %382 = trunc i32 %381 to i8
  %383 = getelementptr inbounds %struct.request, %struct.request* %12, i32 0, i32 3
  store i8 %382, i8* %383, align 2
  %384 = call i32* @__errno_location() #18
  store i32 0, i32* %384, align 4
  %385 = getelementptr inbounds %struct.request, %struct.request* %12, i32 0, i32 3
  %386 = load i8, i8* %385, align 2
  %387 = zext i8 %386 to i64
  %388 = getelementptr inbounds [8 x %struct.tftpConnType], [8 x %struct.tftpConnType]* getelementptr inbounds (%struct.data1, %struct.data1* @network, i32 0, i32 0), i64 0, i64 %387
  %389 = getelementptr inbounds %struct.tftpConnType, %struct.tftpConnType* %388, i32 0, i32 0
  %390 = load i32, i32* %389, align 4
  %391 = load %struct.packet*, %struct.packet** @datain, align 8
  %392 = bitcast %struct.packet* %391 to i8*
  %393 = load i16, i16* @blksize, align 2
  %394 = zext i16 %393 to i32
  %395 = add nsw i32 %394, 4
  %396 = sext i32 %395 to i64
  %397 = getelementptr inbounds %struct.request, %struct.request* %12, i32 0, i32 18
  %398 = bitcast %struct.sockaddr_in* %397 to %struct.sockaddr*
  %399 = getelementptr inbounds %struct.request, %struct.request* %12, i32 0, i32 19
  %400 = call i64 @recvfrom(i32 %390, i8* %392, i64 %396, i32 0, %struct.sockaddr* %398, i32* %399)
  %401 = trunc i64 %400 to i32
  %402 = getelementptr inbounds %struct.request, %struct.request* %12, i32 0, i32 15
  store i32 %401, i32* %402, align 4
  %403 = getelementptr inbounds %struct.request, %struct.request* %12, i32 0, i32 15
  %404 = load i32, i32* %403, align 4
  %405 = icmp slt i32 %404, 4
  br i1 %405, label %410, label %406

406:                                              ; preds = %370
  %407 = call i32* @__errno_location() #18
  %408 = load i32, i32* %407, align 4
  %409 = icmp ne i32 %408, 0
  br i1 %409, label %410, label %411

410:                                              ; preds = %406, %370
  br label %934

411:                                              ; preds = %406
  %412 = getelementptr inbounds %struct.request, %struct.request* %12, i32 0, i32 0
  %413 = getelementptr inbounds [32 x i8], [32 x i8]* %412, i32 0, i32 0
  %414 = getelementptr inbounds %struct.request, %struct.request* %12, i32 0, i32 18
  %415 = getelementptr inbounds %struct.sockaddr_in, %struct.sockaddr_in* %414, i32 0, i32 2
  %416 = bitcast %struct.in_addr* %18 to i8*
  %417 = bitcast %struct.in_addr* %415 to i8*
  call void @llvm.memcpy.p0i8.p0i8.i64(i8* align 4 %416, i8* align 4 %417, i64 4, i1 false)
  %418 = getelementptr inbounds %struct.in_addr, %struct.in_addr* %18, i32 0, i32 0
  %419 = load i32, i32* %418, align 4
  %420 = call i8* @inet_ntoa(i32 %419) #2
  %421 = getelementptr inbounds %struct.request, %struct.request* %12, i32 0, i32 18
  %422 = getelementptr inbounds %struct.sockaddr_in, %struct.sockaddr_in* %421, i32 0, i32 1
  %423 = load i16, i16* %422, align 2
  %424 = call zeroext i16 @ntohs(i16 zeroext %423) #18
  %425 = zext i16 %424 to i32
  %426 = call i32 (i8*, i8*, ...) @sprintf(i8* %413, i8* getelementptr inbounds ([6 x i8], [6 x i8]* @.str.9, i32 0, i32 0), i8* %420, i32 %425) #2
  %427 = getelementptr inbounds %struct.request, %struct.request* %12, i32 0, i32 0
  %428 = getelementptr inbounds [32 x i8], [32 x i8]* %427, i32 0, i32 0
  call void @_ZNSaIcEC1Ev(%"class.std::allocator.10"* %21) #2
  invoke void @_ZNSt7__cxx1112basic_stringIcSt11char_traitsIcESaIcEEC1EPKcRKS3_(%"class.std::__cxx11::basic_string"* %20, i8* %428, %"class.std::allocator.10"* dereferenceable(1) %21)
          to label %429 unwind label %441

429:                                              ; preds = %411
  %430 = invoke dereferenceable(8) %struct.request** @_ZNSt3mapINSt7__cxx1112basic_stringIcSt11char_traitsIcESaIcEEEP7requestSt4lessIS5_ESaISt4pairIKS5_S7_EEEixEOS5_(%"class.std::map"* @_Z9tftpCacheB5cxx11, %"class.std::__cxx11::basic_string"* dereferenceable(32) %20)
          to label %431 unwind label %445

431:                                              ; preds = %429
  %432 = load %struct.request*, %struct.request** %430, align 8
  call void @_ZNSt7__cxx1112basic_stringIcSt11char_traitsIcESaIcEED1Ev(%"class.std::__cxx11::basic_string"* %20) #2
  call void @_ZNSaIcED1Ev(%"class.std::allocator.10"* %21) #2
  store %struct.request* %432, %struct.request** %19, align 8
  %433 = load %struct.request*, %struct.request** %19, align 8
  %434 = icmp ne %struct.request* %433, null
  br i1 %434, label %459, label %435

435:                                              ; preds = %431
  %436 = getelementptr inbounds %struct.request, %struct.request* %12, i32 0, i32 0
  %437 = getelementptr inbounds [32 x i8], [32 x i8]* %436, i32 0, i32 0
  call void @_ZNSaIcEC1Ev(%"class.std::allocator.10"* %25) #2
  invoke void @_ZNSt7__cxx1112basic_stringIcSt11char_traitsIcESaIcEEC1EPKcRKS3_(%"class.std::__cxx11::basic_string"* %24, i8* %437, %"class.std::allocator.10"* dereferenceable(1) %25)
          to label %438 unwind label %450

438:                                              ; preds = %435
  %439 = invoke i64 @_ZNSt3mapINSt7__cxx1112basic_stringIcSt11char_traitsIcESaIcEEEP7requestSt4lessIS5_ESaISt4pairIKS5_S7_EEE5eraseERSB_(%"class.std::map"* @_Z9tftpCacheB5cxx11, %"class.std::__cxx11::basic_string"* dereferenceable(32) %24)
          to label %440 unwind label %454

440:                                              ; preds = %438
  call void @_ZNSt7__cxx1112basic_stringIcSt11char_traitsIcESaIcEED1Ev(%"class.std::__cxx11::basic_string"* %24) #2
  call void @_ZNSaIcED1Ev(%"class.std::allocator.10"* %25) #2
  br label %459

441:                                              ; preds = %411
  %442 = landingpad { i8*, i32 }
          cleanup
  %443 = extractvalue { i8*, i32 } %442, 0
  store i8* %443, i8** %22, align 8
  %444 = extractvalue { i8*, i32 } %442, 1
  store i32 %444, i32* %23, align 4
  br label %449

445:                                              ; preds = %429
  %446 = landingpad { i8*, i32 }
          cleanup
  %447 = extractvalue { i8*, i32 } %446, 0
  store i8* %447, i8** %22, align 8
  %448 = extractvalue { i8*, i32 } %446, 1
  store i32 %448, i32* %23, align 4
  call void @_ZNSt7__cxx1112basic_stringIcSt11char_traitsIcESaIcEED1Ev(%"class.std::__cxx11::basic_string"* %20) #2
  br label %449

449:                                              ; preds = %445, %441
  call void @_ZNSaIcED1Ev(%"class.std::allocator.10"* %21) #2
  br label %2182

450:                                              ; preds = %435
  %451 = landingpad { i8*, i32 }
          cleanup
  %452 = extractvalue { i8*, i32 } %451, 0
  store i8* %452, i8** %22, align 8
  %453 = extractvalue { i8*, i32 } %451, 1
  store i32 %453, i32* %23, align 4
  br label %458

454:                                              ; preds = %438
  %455 = landingpad { i8*, i32 }
          cleanup
  %456 = extractvalue { i8*, i32 } %455, 0
  store i8* %456, i8** %22, align 8
  %457 = extractvalue { i8*, i32 } %455, 1
  store i32 %457, i32* %23, align 4
  call void @_ZNSt7__cxx1112basic_stringIcSt11char_traitsIcESaIcEED1Ev(%"class.std::__cxx11::basic_string"* %24) #2
  br label %458

458:                                              ; preds = %454, %450
  call void @_ZNSaIcED1Ev(%"class.std::allocator.10"* %25) #2
  br label %2182

459:                                              ; preds = %440, %431
  %460 = load %struct.request*, %struct.request** %19, align 8
  %461 = icmp ne %struct.request* %460, null
  br i1 %461, label %462, label %789

462:                                              ; preds = %459
  %463 = getelementptr inbounds %struct.request, %struct.request* %12, i32 0, i32 15
  %464 = load i32, i32* %463, align 4
  %465 = load %struct.request*, %struct.request** %19, align 8
  %466 = getelementptr inbounds %struct.request, %struct.request* %465, i32 0, i32 15
  store i32 %464, i32* %466, align 4
  %467 = load %struct.packet*, %struct.packet** @datain, align 8
  %468 = getelementptr inbounds %struct.packet, %struct.packet* %467, i32 0, i32 0
  %469 = load i16, i16* %468, align 2
  %470 = call zeroext i16 @ntohs(i16 zeroext %469) #18
  %471 = zext i16 %470 to i32
  %472 = icmp eq i32 %471, 3
  br i1 %472, label %473, label %589

473:                                              ; preds = %462
  %474 = load %struct.request*, %struct.request** %19, align 8
  %475 = getelementptr inbounds %struct.request, %struct.request* %474, i32 0, i32 1
  %476 = load i8, i8* %475, align 8
  %477 = zext i8 %476 to i32
  %478 = icmp eq i32 %477, 2
  br i1 %478, label %479, label %589

479:                                              ; preds = %473
  %480 = load %struct.request*, %struct.request** %19, align 8
  %481 = getelementptr inbounds %struct.request, %struct.request* %480, i32 0, i32 15
  %482 = load i32, i32* %481, align 4
  %483 = trunc i32 %482 to i16
  %484 = zext i16 %483 to i32
  %485 = load %struct.request*, %struct.request** %19, align 8
  %486 = getelementptr inbounds %struct.request, %struct.request* %485, i32 0, i32 10
  %487 = load i32, i32* %486, align 4
  %488 = add i32 %487, 4
  %489 = icmp ule i32 %484, %488
  br i1 %489, label %490, label %544

490:                                              ; preds = %479
  %491 = load %struct.request*, %struct.request** %19, align 8
  %492 = getelementptr inbounds %struct.request, %struct.request* %491, i32 0, i32 2
  %493 = load i8, i8* %492, align 1
  %494 = zext i8 %493 to i32
  %495 = icmp sle i32 %494, 3
  br i1 %495, label %496, label %543

496:                                              ; preds = %490
  %497 = load %struct.request*, %struct.request** %19, align 8
  %498 = getelementptr inbounds %struct.request, %struct.request* %497, i32 0, i32 13
  %499 = load i16, i16* %498, align 8
  %500 = zext i16 %499 to i32
  %501 = add nsw i32 %500, 1
  %502 = trunc i32 %501 to i16
  %503 = load %struct.request*, %struct.request** %19, align 8
  %504 = getelementptr inbounds %struct.request, %struct.request* %503, i32 0, i32 14
  store i16 %502, i16* %504, align 2
  %505 = load %struct.packet*, %struct.packet** @datain, align 8
  %506 = getelementptr inbounds %struct.packet, %struct.packet* %505, i32 0, i32 1
  %507 = load i16, i16* %506, align 2
  %508 = call zeroext i16 @ntohs(i16 zeroext %507) #18
  %509 = zext i16 %508 to i32
  %510 = load %struct.request*, %struct.request** %19, align 8
  %511 = getelementptr inbounds %struct.request, %struct.request* %510, i32 0, i32 14
  %512 = load i16, i16* %511, align 2
  %513 = zext i16 %512 to i32
  %514 = icmp eq i32 %509, %513
  br i1 %514, label %515, label %542

515:                                              ; preds = %496
  %516 = load %struct.request*, %struct.request** %19, align 8
  %517 = getelementptr inbounds %struct.request, %struct.request* %516, i32 0, i32 14
  %518 = load i16, i16* %517, align 2
  %519 = load %struct.request*, %struct.request** %19, align 8
  %520 = getelementptr inbounds %struct.request, %struct.request* %519, i32 0, i32 13
  store i16 %518, i16* %520, align 8
  %521 = load %struct.request*, %struct.request** %19, align 8
  %522 = getelementptr inbounds %struct.request, %struct.request* %521, i32 0, i32 12
  %523 = load i32, i32* %522, align 4
  %524 = add i32 %523, 1
  store i32 %524, i32* %522, align 4
  %525 = load %struct.request*, %struct.request** %19, align 8
  %526 = getelementptr inbounds %struct.request, %struct.request* %525, i32 0, i32 2
  store i8 0, i8* %526, align 1
  %527 = call zeroext i16 @htons(i16 zeroext 4) #18
  %528 = load %struct.request*, %struct.request** %19, align 8
  %529 = getelementptr inbounds %struct.request, %struct.request* %528, i32 0, i32 21
  %530 = bitcast %union.anon.9* %529 to %struct.acknowledgement*
  %531 = getelementptr inbounds %struct.acknowledgement, %struct.acknowledgement* %530, i32 0, i32 0
  store i16 %527, i16* %531, align 8
  %532 = load %struct.request*, %struct.request** %19, align 8
  %533 = getelementptr inbounds %struct.request, %struct.request* %532, i32 0, i32 13
  %534 = load i16, i16* %533, align 8
  %535 = call zeroext i16 @ntohs(i16 zeroext %534) #18
  %536 = load %struct.request*, %struct.request** %19, align 8
  %537 = getelementptr inbounds %struct.request, %struct.request* %536, i32 0, i32 21
  %538 = bitcast %union.anon.9* %537 to %struct.acknowledgement*
  %539 = getelementptr inbounds %struct.acknowledgement, %struct.acknowledgement* %538, i32 0, i32 1
  store i16 %535, i16* %539, align 2
  %540 = load %struct.request*, %struct.request** %19, align 8
  %541 = call i32 @_Z11processRecvP7request(%struct.request* %540)
  br label %542

542:                                              ; preds = %515, %496
  br label %543

543:                                              ; preds = %542, %490
  br label %588

544:                                              ; preds = %479
  %545 = call zeroext i16 @htons(i16 zeroext 5) #18
  %546 = load %struct.request*, %struct.request** %19, align 8
  %547 = getelementptr inbounds %struct.request, %struct.request* %546, i32 0, i32 21
  %548 = bitcast %union.anon.9* %547 to %struct.tftperror*
  %549 = getelementptr inbounds %struct.tftperror, %struct.tftperror* %548, i32 0, i32 0
  store i16 %545, i16* %549, align 8
  %550 = call zeroext i16 @htons(i16 zeroext 4) #18
  %551 = load %struct.request*, %struct.request** %19, align 8
  %552 = getelementptr inbounds %struct.request, %struct.request* %551, i32 0, i32 21
  %553 = bitcast %union.anon.9* %552 to %struct.tftperror*
  %554 = getelementptr inbounds %struct.tftperror, %struct.tftperror* %553, i32 0, i32 1
  store i16 %550, i16* %554, align 2
  %555 = load %struct.request*, %struct.request** %19, align 8
  %556 = getelementptr inbounds %struct.request, %struct.request* %555, i32 0, i32 3
  %557 = load i8, i8* %556, align 2
  %558 = zext i8 %557 to i64
  %559 = getelementptr inbounds [8 x %struct.tftpConnType], [8 x %struct.tftpConnType]* getelementptr inbounds (%struct.data1, %struct.data1* @network, i32 0, i32 0), i64 0, i64 %558
  %560 = getelementptr inbounds %struct.tftpConnType, %struct.tftpConnType* %559, i32 0, i32 0
  %561 = load i32, i32* %560, align 4
  %562 = load %struct.request*, %struct.request** %19, align 8
  %563 = getelementptr inbounds %struct.request, %struct.request* %562, i32 0, i32 21
  %564 = bitcast %union.anon.9* %563 to %struct.tftperror*
  %565 = bitcast %struct.tftperror* %564 to i8*
  %566 = load %struct.request*, %struct.request** %19, align 8
  %567 = getelementptr inbounds %struct.request, %struct.request* %566, i32 0, i32 21
  %568 = bitcast %union.anon.9* %567 to %struct.tftperror*
  %569 = getelementptr inbounds %struct.tftperror, %struct.tftperror* %568, i32 0, i32 2
  %570 = getelementptr inbounds [508 x i8], [508 x i8]* %569, i32 0, i32 0
  %571 = call i64 @strlen(i8* %570) #16
  %572 = add i64 %571, 5
  %573 = load %struct.request*, %struct.request** %19, align 8
  %574 = getelementptr inbounds %struct.request, %struct.request* %573, i32 0, i32 18
  %575 = bitcast %struct.sockaddr_in* %574 to %struct.sockaddr*
  %576 = load %struct.request*, %struct.request** %19, align 8
  %577 = getelementptr inbounds %struct.request, %struct.request* %576, i32 0, i32 19
  %578 = load i32, i32* %577, align 8
  %579 = call i64 @sendto(i32 %561, i8* %565, i64 %572, i32 0, %struct.sockaddr* %575, i32 %578)
  %580 = load %struct.request*, %struct.request** %19, align 8
  %581 = getelementptr inbounds %struct.request, %struct.request* %580, i32 0, i32 21
  %582 = bitcast %union.anon.9* %581 to %struct.tftperror*
  %583 = getelementptr inbounds %struct.tftperror, %struct.tftperror* %582, i32 0, i32 2
  %584 = getelementptr inbounds [508 x i8], [508 x i8]* %583, i32 0, i32 0
  %585 = call i32 (i8*, i8*, ...) @sprintf(i8* %584, i8* getelementptr inbounds ([33 x i8], [33 x i8]* @.str.10, i32 0, i32 0)) #2
  %586 = load %struct.request*, %struct.request** %19, align 8
  call void @_Z7logMessP7requesth(%struct.request* %586, i8 zeroext 1)
  %587 = load %struct.request*, %struct.request** %19, align 8
  call void @_Z8cleanReqP7request(%struct.request* %587)
  br label %588

588:                                              ; preds = %544, %543
  br label %788

589:                                              ; preds = %473, %462
  %590 = load %struct.packet*, %struct.packet** @datain, align 8
  %591 = getelementptr inbounds %struct.packet, %struct.packet* %590, i32 0, i32 0
  %592 = load i16, i16* %591, align 2
  %593 = call zeroext i16 @ntohs(i16 zeroext %592) #18
  %594 = zext i16 %593 to i32
  %595 = icmp eq i32 %594, 4
  br i1 %595, label %596, label %640

596:                                              ; preds = %589
  %597 = load %struct.request*, %struct.request** %19, align 8
  %598 = getelementptr inbounds %struct.request, %struct.request* %597, i32 0, i32 1
  %599 = load i8, i8* %598, align 8
  %600 = zext i8 %599 to i32
  %601 = icmp eq i32 %600, 1
  br i1 %601, label %602, label %640

602:                                              ; preds = %596
  %603 = load %struct.request*, %struct.request** %19, align 8
  %604 = getelementptr inbounds %struct.request, %struct.request* %603, i32 0, i32 15
  %605 = load i32, i32* %604, align 4
  %606 = icmp sge i32 %605, 4
  br i1 %606, label %607, label %639

607:                                              ; preds = %602
  %608 = load %struct.request*, %struct.request** %19, align 8
  %609 = getelementptr inbounds %struct.request, %struct.request* %608, i32 0, i32 2
  %610 = load i8, i8* %609, align 1
  %611 = zext i8 %610 to i32
  %612 = icmp sle i32 %611, 3
  br i1 %612, label %613, label %638

613:                                              ; preds = %607
  %614 = load %struct.packet*, %struct.packet** @datain, align 8
  %615 = getelementptr inbounds %struct.packet, %struct.packet* %614, i32 0, i32 1
  %616 = load i16, i16* %615, align 2
  %617 = call zeroext i16 @ntohs(i16 zeroext %616) #18
  %618 = zext i16 %617 to i32
  %619 = load %struct.request*, %struct.request** %19, align 8
  %620 = getelementptr inbounds %struct.request, %struct.request* %619, i32 0, i32 13
  %621 = load i16, i16* %620, align 8
  %622 = zext i16 %621 to i32
  %623 = icmp eq i32 %618, %622
  br i1 %623, label %624, label %637

624:                                              ; preds = %613
  %625 = load %struct.request*, %struct.request** %19, align 8
  %626 = getelementptr inbounds %struct.request, %struct.request* %625, i32 0, i32 13
  %627 = load i16, i16* %626, align 8
  %628 = add i16 %627, 1
  store i16 %628, i16* %626, align 8
  %629 = load %struct.request*, %struct.request** %19, align 8
  %630 = getelementptr inbounds %struct.request, %struct.request* %629, i32 0, i32 12
  %631 = load i32, i32* %630, align 4
  %632 = add i32 %631, 1
  store i32 %632, i32* %630, align 4
  %633 = load %struct.request*, %struct.request** %19, align 8
  %634 = getelementptr inbounds %struct.request, %struct.request* %633, i32 0, i32 2
  store i8 0, i8* %634, align 1
  %635 = load %struct.request*, %struct.request** %19, align 8
  %636 = call i32 @_Z11processSendP7request(%struct.request* %635)
  br label %637

637:                                              ; preds = %624, %613
  br label %638

638:                                              ; preds = %637, %607
  br label %639

639:                                              ; preds = %638, %602
  br label %787

640:                                              ; preds = %596, %589
  %641 = load %struct.request*, %struct.request** %19, align 8
  %642 = getelementptr inbounds %struct.request, %struct.request* %641, i32 0, i32 15
  %643 = load i32, i32* %642, align 4
  %644 = icmp sgt i32 %643, 516
  br i1 %644, label %645, label %689

645:                                              ; preds = %640
  %646 = call zeroext i16 @htons(i16 zeroext 5) #18
  %647 = load %struct.request*, %struct.request** %19, align 8
  %648 = getelementptr inbounds %struct.request, %struct.request* %647, i32 0, i32 21
  %649 = bitcast %union.anon.9* %648 to %struct.tftperror*
  %650 = getelementptr inbounds %struct.tftperror, %struct.tftperror* %649, i32 0, i32 0
  store i16 %646, i16* %650, align 8
  %651 = call zeroext i16 @htons(i16 zeroext 4) #18
  %652 = load %struct.request*, %struct.request** %19, align 8
  %653 = getelementptr inbounds %struct.request, %struct.request* %652, i32 0, i32 21
  %654 = bitcast %union.anon.9* %653 to %struct.tftperror*
  %655 = getelementptr inbounds %struct.tftperror, %struct.tftperror* %654, i32 0, i32 1
  store i16 %651, i16* %655, align 2
  %656 = load %struct.request*, %struct.request** %19, align 8
  %657 = getelementptr inbounds %struct.request, %struct.request* %656, i32 0, i32 3
  %658 = load i8, i8* %657, align 2
  %659 = zext i8 %658 to i64
  %660 = getelementptr inbounds [8 x %struct.tftpConnType], [8 x %struct.tftpConnType]* getelementptr inbounds (%struct.data1, %struct.data1* @network, i32 0, i32 0), i64 0, i64 %659
  %661 = getelementptr inbounds %struct.tftpConnType, %struct.tftpConnType* %660, i32 0, i32 0
  %662 = load i32, i32* %661, align 4
  %663 = load %struct.request*, %struct.request** %19, align 8
  %664 = getelementptr inbounds %struct.request, %struct.request* %663, i32 0, i32 21
  %665 = bitcast %union.anon.9* %664 to %struct.tftperror*
  %666 = bitcast %struct.tftperror* %665 to i8*
  %667 = load %struct.request*, %struct.request** %19, align 8
  %668 = getelementptr inbounds %struct.request, %struct.request* %667, i32 0, i32 21
  %669 = bitcast %union.anon.9* %668 to %struct.tftperror*
  %670 = getelementptr inbounds %struct.tftperror, %struct.tftperror* %669, i32 0, i32 2
  %671 = getelementptr inbounds [508 x i8], [508 x i8]* %670, i32 0, i32 0
  %672 = call i64 @strlen(i8* %671) #16
  %673 = add i64 %672, 5
  %674 = load %struct.request*, %struct.request** %19, align 8
  %675 = getelementptr inbounds %struct.request, %struct.request* %674, i32 0, i32 18
  %676 = bitcast %struct.sockaddr_in* %675 to %struct.sockaddr*
  %677 = load %struct.request*, %struct.request** %19, align 8
  %678 = getelementptr inbounds %struct.request, %struct.request* %677, i32 0, i32 19
  %679 = load i32, i32* %678, align 8
  %680 = call i64 @sendto(i32 %662, i8* %666, i64 %673, i32 0, %struct.sockaddr* %676, i32 %679)
  %681 = load %struct.request*, %struct.request** %19, align 8
  %682 = getelementptr inbounds %struct.request, %struct.request* %681, i32 0, i32 21
  %683 = bitcast %union.anon.9* %682 to %struct.tftperror*
  %684 = getelementptr inbounds %struct.tftperror, %struct.tftperror* %683, i32 0, i32 2
  %685 = getelementptr inbounds [508 x i8], [508 x i8]* %684, i32 0, i32 0
  %686 = call i32 (i8*, i8*, ...) @sprintf(i8* %685, i8* getelementptr inbounds ([33 x i8], [33 x i8]* @.str.10, i32 0, i32 0)) #2
  %687 = load %struct.request*, %struct.request** %19, align 8
  call void @_Z7logMessP7requesth(%struct.request* %687, i8 zeroext 1)
  %688 = load %struct.request*, %struct.request** %19, align 8
  call void @_Z8cleanReqP7request(%struct.request* %688)
  br label %786

689:                                              ; preds = %640
  %690 = load %struct.packet*, %struct.packet** @datain, align 8
  %691 = getelementptr inbounds %struct.packet, %struct.packet* %690, i32 0, i32 0
  %692 = load i16, i16* %691, align 2
  %693 = call zeroext i16 @ntohs(i16 zeroext %692) #18
  %694 = zext i16 %693 to i32
  %695 = icmp eq i32 %694, 1
  br i1 %695, label %703, label %696

696:                                              ; preds = %689
  %697 = load %struct.packet*, %struct.packet** @datain, align 8
  %698 = getelementptr inbounds %struct.packet, %struct.packet* %697, i32 0, i32 0
  %699 = load i16, i16* %698, align 2
  %700 = call zeroext i16 @ntohs(i16 zeroext %699) #18
  %701 = zext i16 %700 to i32
  %702 = icmp eq i32 %701, 2
  br i1 %702, label %703, label %712

703:                                              ; preds = %696, %689
  %704 = load %struct.request*, %struct.request** %19, align 8
  call void @_Z8cleanReqP7request(%struct.request* %704)
  %705 = call i32 @_Z10processNewP7request(%struct.request* %12)
  %706 = icmp ne i32 %705, 0
  br i1 %706, label %711, label %707

707:                                              ; preds = %703
  %708 = load %struct.request*, %struct.request** %19, align 8
  %709 = bitcast %struct.request* %708 to i8*
  %710 = bitcast %struct.request* %12 to i8*
  call void @llvm.memcpy.p0i8.p0i8.i64(i8* align 8 %709, i8* align 8 %710, i64 920, i1 false)
  br label %711

711:                                              ; preds = %707, %703
  br label %785

712:                                              ; preds = %696
  %713 = load %struct.packet*, %struct.packet** @datain, align 8
  %714 = getelementptr inbounds %struct.packet, %struct.packet* %713, i32 0, i32 0
  %715 = load i16, i16* %714, align 2
  %716 = call zeroext i16 @ntohs(i16 zeroext %715) #18
  %717 = zext i16 %716 to i32
  %718 = icmp eq i32 %717, 5
  br i1 %718, label %719, label %735

719:                                              ; preds = %712
  %720 = load %struct.request*, %struct.request** %19, align 8
  %721 = getelementptr inbounds %struct.request, %struct.request* %720, i32 0, i32 21
  %722 = bitcast %union.anon.9* %721 to %struct.tftperror*
  %723 = getelementptr inbounds %struct.tftperror, %struct.tftperror* %722, i32 0, i32 2
  %724 = getelementptr inbounds [508 x i8], [508 x i8]* %723, i32 0, i32 0
  %725 = load %struct.packet*, %struct.packet** @datain, align 8
  %726 = getelementptr inbounds %struct.packet, %struct.packet* %725, i32 0, i32 1
  %727 = load i16, i16* %726, align 2
  %728 = call zeroext i16 @ntohs(i16 zeroext %727) #18
  %729 = zext i16 %728 to i32
  %730 = load %struct.packet*, %struct.packet** @datain, align 8
  %731 = getelementptr inbounds %struct.packet, %struct.packet* %730, i32 0, i32 2
  %732 = call i32 (i8*, i8*, ...) @sprintf(i8* %724, i8* getelementptr inbounds ([23 x i8], [23 x i8]* @.str.11, i32 0, i32 0), i32 %729, i8* %731) #2
  %733 = load %struct.request*, %struct.request** %19, align 8
  call void @_Z7logMessP7requesth(%struct.request* %733, i8 zeroext 1)
  %734 = load %struct.request*, %struct.request** %19, align 8
  call void @_Z8cleanReqP7request(%struct.request* %734)
  br label %784

735:                                              ; preds = %712
  %736 = call zeroext i16 @htons(i16 zeroext 5) #18
  %737 = load %struct.request*, %struct.request** %19, align 8
  %738 = getelementptr inbounds %struct.request, %struct.request* %737, i32 0, i32 21
  %739 = bitcast %union.anon.9* %738 to %struct.tftperror*
  %740 = getelementptr inbounds %struct.tftperror, %struct.tftperror* %739, i32 0, i32 0
  store i16 %736, i16* %740, align 8
  %741 = call zeroext i16 @htons(i16 zeroext 4) #18
  %742 = load %struct.request*, %struct.request** %19, align 8
  %743 = getelementptr inbounds %struct.request, %struct.request* %742, i32 0, i32 21
  %744 = bitcast %union.anon.9* %743 to %struct.tftperror*
  %745 = getelementptr inbounds %struct.tftperror, %struct.tftperror* %744, i32 0, i32 1
  store i16 %741, i16* %745, align 2
  %746 = load %struct.request*, %struct.request** %19, align 8
  %747 = getelementptr inbounds %struct.request, %struct.request* %746, i32 0, i32 21
  %748 = bitcast %union.anon.9* %747 to %struct.tftperror*
  %749 = getelementptr inbounds %struct.tftperror, %struct.tftperror* %748, i32 0, i32 2
  %750 = getelementptr inbounds [508 x i8], [508 x i8]* %749, i32 0, i32 0
  %751 = load %struct.packet*, %struct.packet** @datain, align 8
  %752 = getelementptr inbounds %struct.packet, %struct.packet* %751, i32 0, i32 0
  %753 = load i16, i16* %752, align 2
  %754 = call zeroext i16 @ntohs(i16 zeroext %753) #18
  %755 = zext i16 %754 to i32
  %756 = call i32 (i8*, i8*, ...) @sprintf(i8* %750, i8* getelementptr inbounds ([26 x i8], [26 x i8]* @.str.12, i32 0, i32 0), i32 %755) #2
  %757 = load %struct.request*, %struct.request** %19, align 8
  %758 = getelementptr inbounds %struct.request, %struct.request* %757, i32 0, i32 3
  %759 = load i8, i8* %758, align 2
  %760 = zext i8 %759 to i64
  %761 = getelementptr inbounds [8 x %struct.tftpConnType], [8 x %struct.tftpConnType]* getelementptr inbounds (%struct.data1, %struct.data1* @network, i32 0, i32 0), i64 0, i64 %760
  %762 = getelementptr inbounds %struct.tftpConnType, %struct.tftpConnType* %761, i32 0, i32 0
  %763 = load i32, i32* %762, align 4
  %764 = load %struct.request*, %struct.request** %19, align 8
  %765 = getelementptr inbounds %struct.request, %struct.request* %764, i32 0, i32 21
  %766 = bitcast %union.anon.9* %765 to %struct.tftperror*
  %767 = bitcast %struct.tftperror* %766 to i8*
  %768 = load %struct.request*, %struct.request** %19, align 8
  %769 = getelementptr inbounds %struct.request, %struct.request* %768, i32 0, i32 21
  %770 = bitcast %union.anon.9* %769 to %struct.tftperror*
  %771 = getelementptr inbounds %struct.tftperror, %struct.tftperror* %770, i32 0, i32 2
  %772 = getelementptr inbounds [508 x i8], [508 x i8]* %771, i32 0, i32 0
  %773 = call i64 @strlen(i8* %772) #16
  %774 = add i64 %773, 5
  %775 = load %struct.request*, %struct.request** %19, align 8
  %776 = getelementptr inbounds %struct.request, %struct.request* %775, i32 0, i32 18
  %777 = bitcast %struct.sockaddr_in* %776 to %struct.sockaddr*
  %778 = load %struct.request*, %struct.request** %19, align 8
  %779 = getelementptr inbounds %struct.request, %struct.request* %778, i32 0, i32 19
  %780 = load i32, i32* %779, align 8
  %781 = call i64 @sendto(i32 %763, i8* %767, i64 %774, i32 0, %struct.sockaddr* %777, i32 %780)
  %782 = load %struct.request*, %struct.request** %19, align 8
  call void @_Z7logMessP7requesth(%struct.request* %782, i8 zeroext 1)
  %783 = load %struct.request*, %struct.request** %19, align 8
  call void @_Z8cleanReqP7request(%struct.request* %783)
  br label %784

784:                                              ; preds = %735, %719
  br label %785

785:                                              ; preds = %784, %711
  br label %786

786:                                              ; preds = %785, %645
  br label %787

787:                                              ; preds = %786, %639
  br label %788

788:                                              ; preds = %787, %588
  br label %931

789:                                              ; preds = %459
  %790 = getelementptr inbounds %struct.request, %struct.request* %12, i32 0, i32 15
  %791 = load i32, i32* %790, align 4
  %792 = icmp sgt i32 %791, 516
  br i1 %792, label %793, label %826

793:                                              ; preds = %789
  %794 = call zeroext i16 @htons(i16 zeroext 5) #18
  %795 = getelementptr inbounds %struct.request, %struct.request* %12, i32 0, i32 21
  %796 = bitcast %union.anon.9* %795 to %struct.tftperror*
  %797 = getelementptr inbounds %struct.tftperror, %struct.tftperror* %796, i32 0, i32 0
  store i16 %794, i16* %797, align 8
  %798 = call zeroext i16 @htons(i16 zeroext 4) #18
  %799 = getelementptr inbounds %struct.request, %struct.request* %12, i32 0, i32 21
  %800 = bitcast %union.anon.9* %799 to %struct.tftperror*
  %801 = getelementptr inbounds %struct.tftperror, %struct.tftperror* %800, i32 0, i32 1
  store i16 %798, i16* %801, align 2
  %802 = getelementptr inbounds %struct.request, %struct.request* %12, i32 0, i32 21
  %803 = bitcast %union.anon.9* %802 to %struct.tftperror*
  %804 = getelementptr inbounds %struct.tftperror, %struct.tftperror* %803, i32 0, i32 2
  %805 = getelementptr inbounds [508 x i8], [508 x i8]* %804, i32 0, i32 0
  %806 = call i32 (i8*, i8*, ...) @sprintf(i8* %805, i8* getelementptr inbounds ([33 x i8], [33 x i8]* @.str.10, i32 0, i32 0)) #2
  %807 = load i32, i32* %17, align 4
  %808 = sext i32 %807 to i64
  %809 = getelementptr inbounds [8 x %struct.tftpConnType], [8 x %struct.tftpConnType]* getelementptr inbounds (%struct.data1, %struct.data1* @network, i32 0, i32 0), i64 0, i64 %808
  %810 = getelementptr inbounds %struct.tftpConnType, %struct.tftpConnType* %809, i32 0, i32 0
  %811 = load i32, i32* %810, align 4
  %812 = getelementptr inbounds %struct.request, %struct.request* %12, i32 0, i32 21
  %813 = bitcast %union.anon.9* %812 to %struct.tftperror*
  %814 = bitcast %struct.tftperror* %813 to i8*
  %815 = getelementptr inbounds %struct.request, %struct.request* %12, i32 0, i32 21
  %816 = bitcast %union.anon.9* %815 to %struct.tftperror*
  %817 = getelementptr inbounds %struct.tftperror, %struct.tftperror* %816, i32 0, i32 2
  %818 = getelementptr inbounds [508 x i8], [508 x i8]* %817, i32 0, i32 0
  %819 = call i64 @strlen(i8* %818) #16
  %820 = add i64 %819, 5
  %821 = getelementptr inbounds %struct.request, %struct.request* %12, i32 0, i32 18
  %822 = bitcast %struct.sockaddr_in* %821 to %struct.sockaddr*
  %823 = getelementptr inbounds %struct.request, %struct.request* %12, i32 0, i32 19
  %824 = load i32, i32* %823, align 8
  %825 = call i64 @sendto(i32 %811, i8* %814, i64 %820, i32 0, %struct.sockaddr* %822, i32 %824)
  call void @_Z7logMessP7requesth(%struct.request* %12, i8 zeroext 1)
  br label %930

826:                                              ; preds = %789
  %827 = load %struct.packet*, %struct.packet** @datain, align 8
  %828 = getelementptr inbounds %struct.packet, %struct.packet* %827, i32 0, i32 0
  %829 = load i16, i16* %828, align 2
  %830 = call zeroext i16 @ntohs(i16 zeroext %829) #18
  %831 = zext i16 %830 to i32
  %832 = icmp eq i32 %831, 5
  br i1 %832, label %833, label %846

833:                                              ; preds = %826
  %834 = getelementptr inbounds %struct.request, %struct.request* %12, i32 0, i32 21
  %835 = bitcast %union.anon.9* %834 to %struct.tftperror*
  %836 = getelementptr inbounds %struct.tftperror, %struct.tftperror* %835, i32 0, i32 2
  %837 = getelementptr inbounds [508 x i8], [508 x i8]* %836, i32 0, i32 0
  %838 = load %struct.packet*, %struct.packet** @datain, align 8
  %839 = getelementptr inbounds %struct.packet, %struct.packet* %838, i32 0, i32 1
  %840 = load i16, i16* %839, align 2
  %841 = call zeroext i16 @ntohs(i16 zeroext %840) #18
  %842 = zext i16 %841 to i32
  %843 = load %struct.packet*, %struct.packet** @datain, align 8
  %844 = getelementptr inbounds %struct.packet, %struct.packet* %843, i32 0, i32 2
  %845 = call i32 (i8*, i8*, ...) @sprintf(i8* %837, i8* getelementptr inbounds ([23 x i8], [23 x i8]* @.str.11, i32 0, i32 0), i32 %842, i8* %844) #2
  call void @_Z7logMessP7requesth(%struct.request* %12, i8 zeroext 1)
  br label %929

846:                                              ; preds = %826
  %847 = load %struct.packet*, %struct.packet** @datain, align 8
  %848 = getelementptr inbounds %struct.packet, %struct.packet* %847, i32 0, i32 0
  %849 = load i16, i16* %848, align 2
  %850 = call zeroext i16 @ntohs(i16 zeroext %849) #18
  %851 = zext i16 %850 to i32
  %852 = icmp ne i32 %851, 1
  br i1 %852, label %853, label %893

853:                                              ; preds = %846
  %854 = load %struct.packet*, %struct.packet** @datain, align 8
  %855 = getelementptr inbounds %struct.packet, %struct.packet* %854, i32 0, i32 0
  %856 = load i16, i16* %855, align 2
  %857 = call zeroext i16 @ntohs(i16 zeroext %856) #18
  %858 = zext i16 %857 to i32
  %859 = icmp ne i32 %858, 2
  br i1 %859, label %860, label %893

860:                                              ; preds = %853
  %861 = call zeroext i16 @htons(i16 zeroext 5) #18
  %862 = getelementptr inbounds %struct.request, %struct.request* %12, i32 0, i32 21
  %863 = bitcast %union.anon.9* %862 to %struct.tftperror*
  %864 = getelementptr inbounds %struct.tftperror, %struct.tftperror* %863, i32 0, i32 0
  store i16 %861, i16* %864, align 8
  %865 = call zeroext i16 @htons(i16 zeroext 5) #18
  %866 = getelementptr inbounds %struct.request, %struct.request* %12, i32 0, i32 21
  %867 = bitcast %union.anon.9* %866 to %struct.tftperror*
  %868 = getelementptr inbounds %struct.tftperror, %struct.tftperror* %867, i32 0, i32 1
  store i16 %865, i16* %868, align 2
  %869 = getelementptr inbounds %struct.request, %struct.request* %12, i32 0, i32 21
  %870 = bitcast %union.anon.9* %869 to %struct.tftperror*
  %871 = getelementptr inbounds %struct.tftperror, %struct.tftperror* %870, i32 0, i32 2
  %872 = getelementptr inbounds [508 x i8], [508 x i8]* %871, i32 0, i32 0
  %873 = call i32 (i8*, i8*, ...) @sprintf(i8* %872, i8* getelementptr inbounds ([20 x i8], [20 x i8]* @.str.13, i32 0, i32 0)) #2
  %874 = load i32, i32* %17, align 4
  %875 = sext i32 %874 to i64
  %876 = getelementptr inbounds [8 x %struct.tftpConnType], [8 x %struct.tftpConnType]* getelementptr inbounds (%struct.data1, %struct.data1* @network, i32 0, i32 0), i64 0, i64 %875
  %877 = getelementptr inbounds %struct.tftpConnType, %struct.tftpConnType* %876, i32 0, i32 0
  %878 = load i32, i32* %877, align 4
  %879 = getelementptr inbounds %struct.request, %struct.request* %12, i32 0, i32 21
  %880 = bitcast %union.anon.9* %879 to %struct.tftperror*
  %881 = bitcast %struct.tftperror* %880 to i8*
  %882 = getelementptr inbounds %struct.request, %struct.request* %12, i32 0, i32 21
  %883 = bitcast %union.anon.9* %882 to %struct.tftperror*
  %884 = getelementptr inbounds %struct.tftperror, %struct.tftperror* %883, i32 0, i32 2
  %885 = getelementptr inbounds [508 x i8], [508 x i8]* %884, i32 0, i32 0
  %886 = call i64 @strlen(i8* %885) #16
  %887 = add i64 %886, 5
  %888 = getelementptr inbounds %struct.request, %struct.request* %12, i32 0, i32 18
  %889 = bitcast %struct.sockaddr_in* %888 to %struct.sockaddr*
  %890 = getelementptr inbounds %struct.request, %struct.request* %12, i32 0, i32 19
  %891 = load i32, i32* %890, align 8
  %892 = call i64 @sendto(i32 %878, i8* %881, i64 %887, i32 0, %struct.sockaddr* %889, i32 %891)
  call void @_Z7logMessP7requesth(%struct.request* %12, i8 zeroext 1)
  br label %928

893:                                              ; preds = %853, %846
  %894 = call i32 @_Z10processNewP7request(%struct.request* %12)
  %895 = icmp ne i32 %894, 0
  br i1 %895, label %927, label %896

896:                                              ; preds = %893
  %897 = call noalias i8* @calloc(i64 1, i64 920) #2
  %898 = bitcast i8* %897 to %struct.request*
  store %struct.request* %898, %struct.request** %26, align 8
  %899 = load %struct.request*, %struct.request** %26, align 8
  %900 = icmp ne %struct.request* %899, null
  br i1 %900, label %903, label %901

901:                                              ; preds = %896
  %902 = call i32 (i8*, i8*, ...) @sprintf(i8* getelementptr inbounds ([512 x i8], [512 x i8]* @logBuff, i32 0, i32 0), i8* getelementptr inbounds ([13 x i8], [13 x i8]* @.str.8, i32 0, i32 0)) #2
  call void @_Z7logMessPch(i8* getelementptr inbounds ([512 x i8], [512 x i8]* @logBuff, i32 0, i32 0), i8 zeroext 1)
  br label %934

903:                                              ; preds = %896
  %904 = load %struct.request*, %struct.request** %26, align 8
  %905 = bitcast %struct.request* %904 to i8*
  %906 = bitcast %struct.request* %12 to i8*
  call void @llvm.memcpy.p0i8.p0i8.i64(i8* align 8 %905, i8* align 8 %906, i64 920, i1 false)
  %907 = load %struct.request*, %struct.request** %26, align 8
  %908 = load %struct.request*, %struct.request** %26, align 8
  %909 = getelementptr inbounds %struct.request, %struct.request* %908, i32 0, i32 0
  %910 = getelementptr inbounds [32 x i8], [32 x i8]* %909, i32 0, i32 0
  call void @_ZNSaIcEC1Ev(%"class.std::allocator.10"* %28) #2
  invoke void @_ZNSt7__cxx1112basic_stringIcSt11char_traitsIcESaIcEEC1EPKcRKS3_(%"class.std::__cxx11::basic_string"* %27, i8* %910, %"class.std::allocator.10"* dereferenceable(1) %28)
          to label %911 unwind label %918

911:                                              ; preds = %903
  %912 = invoke dereferenceable(8) %struct.request** @_ZNSt3mapINSt7__cxx1112basic_stringIcSt11char_traitsIcESaIcEEEP7requestSt4lessIS5_ESaISt4pairIKS5_S7_EEEixEOS5_(%"class.std::map"* @_Z9tftpCacheB5cxx11, %"class.std::__cxx11::basic_string"* dereferenceable(32) %27)
          to label %913 unwind label %922

913:                                              ; preds = %911
  store %struct.request* %907, %struct.request** %912, align 8
  call void @_ZNSt7__cxx1112basic_stringIcSt11char_traitsIcESaIcEED1Ev(%"class.std::__cxx11::basic_string"* %27) #2
  call void @_ZNSaIcED1Ev(%"class.std::allocator.10"* %28) #2
  %914 = load %struct.request*, %struct.request** %26, align 8
  %915 = getelementptr inbounds %struct.request, %struct.request* %914, i32 0, i32 4
  call void @_ZNSt4pairIlP7requestEC2IRlRS1_Lb1EEEOT_OT0_(%"struct.std::pair"* %29, i64* dereferenceable(8) %915, %struct.request** dereferenceable(8) %26)
  %916 = call %"struct.std::_Rb_tree_node_base"* @_ZNSt8multimapIlP7requestSt4lessIlESaISt4pairIKlS1_EEE6insertIS4_IlS1_EEENSt9enable_ifIXsr16is_constructibleIS6_T_EE5valueESt17_Rb_tree_iteratorIS6_EE4typeEOSC_(%"class.std::multimap"* @tftpAge, %"struct.std::pair"* dereferenceable(16) %29)
  %917 = getelementptr inbounds %"struct.std::_Rb_tree_iterator", %"struct.std::_Rb_tree_iterator"* %30, i32 0, i32 0
  store %"struct.std::_Rb_tree_node_base"* %916, %"struct.std::_Rb_tree_node_base"** %917, align 8
  br label %927

918:                                              ; preds = %903
  %919 = landingpad { i8*, i32 }
          cleanup
  %920 = extractvalue { i8*, i32 } %919, 0
  store i8* %920, i8** %22, align 8
  %921 = extractvalue { i8*, i32 } %919, 1
  store i32 %921, i32* %23, align 4
  br label %926

922:                                              ; preds = %911
  %923 = landingpad { i8*, i32 }
          cleanup
  %924 = extractvalue { i8*, i32 } %923, 0
  store i8* %924, i8** %22, align 8
  %925 = extractvalue { i8*, i32 } %923, 1
  store i32 %925, i32* %23, align 4
  call void @_ZNSt7__cxx1112basic_stringIcSt11char_traitsIcESaIcEED1Ev(%"class.std::__cxx11::basic_string"* %27) #2
  br label %926

926:                                              ; preds = %922, %918
  call void @_ZNSaIcED1Ev(%"class.std::allocator.10"* %28) #2
  br label %2182

927:                                              ; preds = %913, %893
  br label %928

928:                                              ; preds = %927, %860
  br label %929

929:                                              ; preds = %928, %833
  br label %930

930:                                              ; preds = %929, %793
  br label %931

931:                                              ; preds = %930, %788
  br label %932

932:                                              ; preds = %931, %349
  br label %933

933:                                              ; preds = %932, %346
  br label %934

934:                                              ; preds = %933, %901, %410
  %935 = load i32, i32* %17, align 4
  %936 = add nsw i32 %935, 1
  store i32 %936, i32* %17, align 4
  br label %331

937:                                              ; preds = %344
  %938 = call %"struct.std::_Rb_tree_node_base"* @_ZNSt8multimapIlP7requestSt4lessIlESaISt4pairIKlS1_EEE5beginEv(%"class.std::multimap"* @tftpAge) #2
  %939 = getelementptr inbounds %"struct.std::_Rb_tree_iterator", %"struct.std::_Rb_tree_iterator"* %31, i32 0, i32 0
  store %"struct.std::_Rb_tree_node_base"* %938, %"struct.std::_Rb_tree_node_base"** %939, align 8
  call void @_ZNSt17_Rb_tree_iteratorISt4pairIKlP7requestEEC2Ev(%"struct.std::_Rb_tree_iterator"* %32) #2
  %940 = call i64 @time(i64* null) #2
  store i64 %940, i64* %33, align 8
  br label %941

941:                                              ; preds = %1179, %937
  %942 = call %"struct.std::_Rb_tree_node_base"* @_ZNSt8multimapIlP7requestSt4lessIlESaISt4pairIKlS1_EEE3endEv(%"class.std::multimap"* @tftpAge) #2
  %943 = getelementptr inbounds %"struct.std::_Rb_tree_iterator", %"struct.std::_Rb_tree_iterator"* %35, i32 0, i32 0
  store %"struct.std::_Rb_tree_node_base"* %942, %"struct.std::_Rb_tree_node_base"** %943, align 8
  %944 = call zeroext i1 @_ZNKSt17_Rb_tree_iteratorISt4pairIKlP7requestEEneERKS5_(%"struct.std::_Rb_tree_iterator"* %31, %"struct.std::_Rb_tree_iterator"* dereferenceable(8) %35) #2
  br i1 %944, label %945, label %1180

945:                                              ; preds = %941
  %946 = call %"struct.std::pair.14"* @_ZNKSt17_Rb_tree_iteratorISt4pairIKlP7requestEEptEv(%"struct.std::_Rb_tree_iterator"* %31) #2
  %947 = getelementptr inbounds %"struct.std::pair.14", %"struct.std::pair.14"* %946, i32 0, i32 1
  %948 = load %struct.request*, %struct.request** %947, align 8
  store %struct.request* %948, %struct.request** %34, align 8
  %949 = call %"struct.std::pair.14"* @_ZNKSt17_Rb_tree_iteratorISt4pairIKlP7requestEEptEv(%"struct.std::_Rb_tree_iterator"* %31) #2
  %950 = getelementptr inbounds %"struct.std::pair.14", %"struct.std::pair.14"* %949, i32 0, i32 0
  %951 = load i64, i64* %950, align 8
  %952 = load i64, i64* %33, align 8
  %953 = icmp sgt i64 %951, %952
  br i1 %953, label %954, label %955

954:                                              ; preds = %945
  br label %1180

955:                                              ; preds = %945
  %956 = call %"struct.std::pair.14"* @_ZNKSt17_Rb_tree_iteratorISt4pairIKlP7requestEEptEv(%"struct.std::_Rb_tree_iterator"* %31) #2
  %957 = getelementptr inbounds %"struct.std::pair.14", %"struct.std::pair.14"* %956, i32 0, i32 0
  %958 = load i64, i64* %957, align 8
  %959 = load %struct.request*, %struct.request** %34, align 8
  %960 = getelementptr inbounds %struct.request, %struct.request* %959, i32 0, i32 4
  %961 = load i64, i64* %960, align 8
  %962 = icmp slt i64 %958, %961
  br i1 %962, label %963, label %984

963:                                              ; preds = %955
  %964 = load %struct.request*, %struct.request** %34, align 8
  %965 = getelementptr inbounds %struct.request, %struct.request* %964, i32 0, i32 4
  %966 = load i64, i64* %965, align 8
  %967 = load i64, i64* %33, align 8
  %968 = icmp sgt i64 %966, %967
  br i1 %968, label %969, label %984

969:                                              ; preds = %963
  %970 = bitcast %"struct.std::_Rb_tree_iterator"* %32 to i8*
  %971 = bitcast %"struct.std::_Rb_tree_iterator"* %31 to i8*
  call void @llvm.memcpy.p0i8.p0i8.i64(i8* align 8 %970, i8* align 8 %971, i64 8, i1 false)
  %972 = call %"struct.std::_Rb_tree_node_base"* @_ZNSt17_Rb_tree_iteratorISt4pairIKlP7requestEEppEi(%"struct.std::_Rb_tree_iterator"* %31, i32 0) #2
  %973 = getelementptr inbounds %"struct.std::_Rb_tree_iterator", %"struct.std::_Rb_tree_iterator"* %36, i32 0, i32 0
  store %"struct.std::_Rb_tree_node_base"* %972, %"struct.std::_Rb_tree_node_base"** %973, align 8
  %974 = bitcast %"struct.std::_Rb_tree_iterator"* %37 to i8*
  %975 = bitcast %"struct.std::_Rb_tree_iterator"* %32 to i8*
  call void @llvm.memcpy.p0i8.p0i8.i64(i8* align 8 %974, i8* align 8 %975, i64 8, i1 false)
  %976 = getelementptr inbounds %"struct.std::_Rb_tree_iterator", %"struct.std::_Rb_tree_iterator"* %37, i32 0, i32 0
  %977 = load %"struct.std::_Rb_tree_node_base"*, %"struct.std::_Rb_tree_node_base"** %976, align 8
  %978 = call %"struct.std::_Rb_tree_node_base"* @_ZNSt8multimapIlP7requestSt4lessIlESaISt4pairIKlS1_EEE5eraseB5cxx11ESt17_Rb_tree_iteratorIS6_E(%"class.std::multimap"* @tftpAge, %"struct.std::_Rb_tree_node_base"* %977)
  %979 = getelementptr inbounds %"struct.std::_Rb_tree_iterator", %"struct.std::_Rb_tree_iterator"* %38, i32 0, i32 0
  store %"struct.std::_Rb_tree_node_base"* %978, %"struct.std::_Rb_tree_node_base"** %979, align 8
  %980 = load %struct.request*, %struct.request** %34, align 8
  %981 = getelementptr inbounds %struct.request, %struct.request* %980, i32 0, i32 4
  call void @_ZNSt4pairIlP7requestEC2IRlRS1_Lb1EEEOT_OT0_(%"struct.std::pair"* %39, i64* dereferenceable(8) %981, %struct.request** dereferenceable(8) %34)
  %982 = call %"struct.std::_Rb_tree_node_base"* @_ZNSt8multimapIlP7requestSt4lessIlESaISt4pairIKlS1_EEE6insertIS4_IlS1_EEENSt9enable_ifIXsr16is_constructibleIS6_T_EE5valueESt17_Rb_tree_iteratorIS6_EE4typeEOSC_(%"class.std::multimap"* @tftpAge, %"struct.std::pair"* dereferenceable(16) %39)
  %983 = getelementptr inbounds %"struct.std::_Rb_tree_iterator", %"struct.std::_Rb_tree_iterator"* %40, i32 0, i32 0
  store %"struct.std::_Rb_tree_node_base"* %982, %"struct.std::_Rb_tree_node_base"** %983, align 8
  br label %1178

984:                                              ; preds = %963, %955
  %985 = load %struct.request*, %struct.request** %34, align 8
  %986 = getelementptr inbounds %struct.request, %struct.request* %985, i32 0, i32 4
  %987 = load i64, i64* %986, align 8
  %988 = load i64, i64* %33, align 8
  %989 = icmp sle i64 %987, %988
  br i1 %989, label %990, label %1092

990:                                              ; preds = %984
  %991 = load %struct.request*, %struct.request** %34, align 8
  %992 = getelementptr inbounds %struct.request, %struct.request* %991, i32 0, i32 2
  %993 = load i8, i8* %992, align 1
  %994 = zext i8 %993 to i32
  %995 = icmp sge i32 %994, 3
  br i1 %995, label %996, label %1092

996:                                              ; preds = %990
  %997 = load %struct.request*, %struct.request** %34, align 8
  %998 = getelementptr inbounds %struct.request, %struct.request* %997, i32 0, i32 2
  %999 = load i8, i8* %998, align 1
  %1000 = zext i8 %999 to i32
  %1001 = icmp slt i32 %1000, 255
  br i1 %1001, label %1002, label %1063

1002:                                             ; preds = %996
  %1003 = call zeroext i16 @htons(i16 zeroext 5) #18
  %1004 = load %struct.request*, %struct.request** %34, align 8
  %1005 = getelementptr inbounds %struct.request, %struct.request* %1004, i32 0, i32 21
  %1006 = bitcast %union.anon.9* %1005 to %struct.tftperror*
  %1007 = getelementptr inbounds %struct.tftperror, %struct.tftperror* %1006, i32 0, i32 0
  store i16 %1003, i16* %1007, align 8
  %1008 = call zeroext i16 @htons(i16 zeroext 0) #18
  %1009 = load %struct.request*, %struct.request** %34, align 8
  %1010 = getelementptr inbounds %struct.request, %struct.request* %1009, i32 0, i32 21
  %1011 = bitcast %union.anon.9* %1010 to %struct.tftperror*
  %1012 = getelementptr inbounds %struct.tftperror, %struct.tftperror* %1011, i32 0, i32 1
  store i16 %1008, i16* %1012, align 2
  %1013 = load %struct.request*, %struct.request** %34, align 8
  %1014 = getelementptr inbounds %struct.request, %struct.request* %1013, i32 0, i32 12
  %1015 = load i32, i32* %1014, align 4
  %1016 = icmp ne i32 %1015, 0
  br i1 %1016, label %1017, label %1029

1017:                                             ; preds = %1002
  %1018 = load %struct.request*, %struct.request** %34, align 8
  %1019 = getelementptr inbounds %struct.request, %struct.request* %1018, i32 0, i32 13
  %1020 = load i16, i16* %1019, align 8
  %1021 = icmp ne i16 %1020, 0
  br i1 %1021, label %1029, label %1022

1022:                                             ; preds = %1017
  %1023 = load %struct.request*, %struct.request** %34, align 8
  %1024 = getelementptr inbounds %struct.request, %struct.request* %1023, i32 0, i32 21
  %1025 = bitcast %union.anon.9* %1024 to %struct.tftperror*
  %1026 = getelementptr inbounds %struct.tftperror, %struct.tftperror* %1025, i32 0, i32 2
  %1027 = getelementptr inbounds [508 x i8], [508 x i8]* %1026, i32 0, i32 0
  %1028 = call i8* @strcpy(i8* %1027, i8* getelementptr inbounds ([52 x i8], [52 x i8]* @.str.14, i32 0, i32 0)) #2
  br label %1036

1029:                                             ; preds = %1017, %1002
  %1030 = load %struct.request*, %struct.request** %34, align 8
  %1031 = getelementptr inbounds %struct.request, %struct.request* %1030, i32 0, i32 21
  %1032 = bitcast %union.anon.9* %1031 to %struct.tftperror*
  %1033 = getelementptr inbounds %struct.tftperror, %struct.tftperror* %1032, i32 0, i32 2
  %1034 = getelementptr inbounds [508 x i8], [508 x i8]* %1033, i32 0, i32 0
  %1035 = call i8* @strcpy(i8* %1034, i8* getelementptr inbounds ([8 x i8], [8 x i8]* @.str.15, i32 0, i32 0)) #2
  br label %1036

1036:                                             ; preds = %1029, %1022
  %1037 = load %struct.request*, %struct.request** %34, align 8
  %1038 = getelementptr inbounds %struct.request, %struct.request* %1037, i32 0, i32 3
  %1039 = load i8, i8* %1038, align 2
  %1040 = zext i8 %1039 to i64
  %1041 = getelementptr inbounds [8 x %struct.tftpConnType], [8 x %struct.tftpConnType]* getelementptr inbounds (%struct.data1, %struct.data1* @network, i32 0, i32 0), i64 0, i64 %1040
  %1042 = getelementptr inbounds %struct.tftpConnType, %struct.tftpConnType* %1041, i32 0, i32 0
  %1043 = load i32, i32* %1042, align 4
  %1044 = load %struct.request*, %struct.request** %34, align 8
  %1045 = getelementptr inbounds %struct.request, %struct.request* %1044, i32 0, i32 21
  %1046 = bitcast %union.anon.9* %1045 to %struct.tftperror*
  %1047 = bitcast %struct.tftperror* %1046 to i8*
  %1048 = load %struct.request*, %struct.request** %34, align 8
  %1049 = getelementptr inbounds %struct.request, %struct.request* %1048, i32 0, i32 21
  %1050 = bitcast %union.anon.9* %1049 to %struct.tftperror*
  %1051 = getelementptr inbounds %struct.tftperror, %struct.tftperror* %1050, i32 0, i32 2
  %1052 = getelementptr inbounds [508 x i8], [508 x i8]* %1051, i32 0, i32 0
  %1053 = call i64 @strlen(i8* %1052) #16
  %1054 = add i64 %1053, 5
  %1055 = load %struct.request*, %struct.request** %34, align 8
  %1056 = getelementptr inbounds %struct.request, %struct.request* %1055, i32 0, i32 18
  %1057 = bitcast %struct.sockaddr_in* %1056 to %struct.sockaddr*
  %1058 = load %struct.request*, %struct.request** %34, align 8
  %1059 = getelementptr inbounds %struct.request, %struct.request* %1058, i32 0, i32 19
  %1060 = load i32, i32* %1059, align 8
  %1061 = call i64 @sendto(i32 %1043, i8* %1047, i64 %1054, i32 0, %struct.sockaddr* %1057, i32 %1060)
  %1062 = load %struct.request*, %struct.request** %34, align 8
  call void @_Z7logMessP7requesth(%struct.request* %1062, i8 zeroext 1)
  br label %1063

1063:                                             ; preds = %1036, %996
  %1064 = bitcast %"struct.std::_Rb_tree_iterator"* %32 to i8*
  %1065 = bitcast %"struct.std::_Rb_tree_iterator"* %31 to i8*
  call void @llvm.memcpy.p0i8.p0i8.i64(i8* align 8 %1064, i8* align 8 %1065, i64 8, i1 false)
  %1066 = call %"struct.std::_Rb_tree_node_base"* @_ZNSt17_Rb_tree_iteratorISt4pairIKlP7requestEEppEi(%"struct.std::_Rb_tree_iterator"* %31, i32 0) #2
  %1067 = getelementptr inbounds %"struct.std::_Rb_tree_iterator", %"struct.std::_Rb_tree_iterator"* %41, i32 0, i32 0
  store %"struct.std::_Rb_tree_node_base"* %1066, %"struct.std::_Rb_tree_node_base"** %1067, align 8
  %1068 = bitcast %"struct.std::_Rb_tree_iterator"* %42 to i8*
  %1069 = bitcast %"struct.std::_Rb_tree_iterator"* %32 to i8*
  call void @llvm.memcpy.p0i8.p0i8.i64(i8* align 8 %1068, i8* align 8 %1069, i64 8, i1 false)
  %1070 = getelementptr inbounds %"struct.std::_Rb_tree_iterator", %"struct.std::_Rb_tree_iterator"* %42, i32 0, i32 0
  %1071 = load %"struct.std::_Rb_tree_node_base"*, %"struct.std::_Rb_tree_node_base"** %1070, align 8
  %1072 = call %"struct.std::_Rb_tree_node_base"* @_ZNSt8multimapIlP7requestSt4lessIlESaISt4pairIKlS1_EEE5eraseB5cxx11ESt17_Rb_tree_iteratorIS6_E(%"class.std::multimap"* @tftpAge, %"struct.std::_Rb_tree_node_base"* %1071)
  %1073 = getelementptr inbounds %"struct.std::_Rb_tree_iterator", %"struct.std::_Rb_tree_iterator"* %43, i32 0, i32 0
  store %"struct.std::_Rb_tree_node_base"* %1072, %"struct.std::_Rb_tree_node_base"** %1073, align 8
  %1074 = load %struct.request*, %struct.request** %34, align 8
  %1075 = getelementptr inbounds %struct.request, %struct.request* %1074, i32 0, i32 0
  %1076 = getelementptr inbounds [32 x i8], [32 x i8]* %1075, i32 0, i32 0
  call void @_ZNSaIcEC1Ev(%"class.std::allocator.10"* %45) #2
  invoke void @_ZNSt7__cxx1112basic_stringIcSt11char_traitsIcESaIcEEC1EPKcRKS3_(%"class.std::__cxx11::basic_string"* %44, i8* %1076, %"class.std::allocator.10"* dereferenceable(1) %45)
          to label %1077 unwind label %1083

1077:                                             ; preds = %1063
  %1078 = invoke i64 @_ZNSt3mapINSt7__cxx1112basic_stringIcSt11char_traitsIcESaIcEEEP7requestSt4lessIS5_ESaISt4pairIKS5_S7_EEE5eraseERSB_(%"class.std::map"* @_Z9tftpCacheB5cxx11, %"class.std::__cxx11::basic_string"* dereferenceable(32) %44)
          to label %1079 unwind label %1087

1079:                                             ; preds = %1077
  call void @_ZNSt7__cxx1112basic_stringIcSt11char_traitsIcESaIcEED1Ev(%"class.std::__cxx11::basic_string"* %44) #2
  call void @_ZNSaIcED1Ev(%"class.std::allocator.10"* %45) #2
  %1080 = load %struct.request*, %struct.request** %34, align 8
  call void @_Z8cleanReqP7request(%struct.request* %1080)
  %1081 = load %struct.request*, %struct.request** %34, align 8
  %1082 = bitcast %struct.request* %1081 to i8*
  call void @free(i8* %1082) #2
  br label %1177

1083:                                             ; preds = %1063
  %1084 = landingpad { i8*, i32 }
          cleanup
  %1085 = extractvalue { i8*, i32 } %1084, 0
  store i8* %1085, i8** %22, align 8
  %1086 = extractvalue { i8*, i32 } %1084, 1
  store i32 %1086, i32* %23, align 4
  br label %1091

1087:                                             ; preds = %1077
  %1088 = landingpad { i8*, i32 }
          cleanup
  %1089 = extractvalue { i8*, i32 } %1088, 0
  store i8* %1089, i8** %22, align 8
  %1090 = extractvalue { i8*, i32 } %1088, 1
  store i32 %1090, i32* %23, align 4
  call void @_ZNSt7__cxx1112basic_stringIcSt11char_traitsIcESaIcEED1Ev(%"class.std::__cxx11::basic_string"* %44) #2
  br label %1091

1091:                                             ; preds = %1087, %1083
  call void @_ZNSaIcED1Ev(%"class.std::allocator.10"* %45) #2
  br label %2182

1092:                                             ; preds = %990, %984
  %1093 = load %struct.request*, %struct.request** %34, align 8
  %1094 = getelementptr inbounds %struct.request, %struct.request* %1093, i32 0, i32 4
  %1095 = load i64, i64* %1094, align 8
  %1096 = load i64, i64* %33, align 8
  %1097 = icmp sle i64 %1095, %1096
  br i1 %1097, label %1098, label %1173

1098:                                             ; preds = %1092
  %1099 = load %struct.request*, %struct.request** %34, align 8
  %1100 = getelementptr inbounds %struct.request, %struct.request* %1099, i32 0, i32 21
  %1101 = bitcast %union.anon.9* %1100 to %struct.acknowledgement*
  %1102 = getelementptr inbounds %struct.acknowledgement, %struct.acknowledgement* %1101, i32 0, i32 0
  %1103 = load i16, i16* %1102, align 8
  %1104 = call zeroext i16 @ntohs(i16 zeroext %1103) #18
  %1105 = zext i16 %1104 to i32
  %1106 = icmp eq i32 %1105, 3
  br i1 %1106, label %1107, label %1127

1107:                                             ; preds = %1098
  %1108 = load %struct.request*, %struct.request** %34, align 8
  %1109 = call i32 @_Z11processSendP7request(%struct.request* %1108)
  %1110 = icmp ne i32 %1109, 0
  br i1 %1110, label %1111, label %1113

1111:                                             ; preds = %1107
  %1112 = load %struct.request*, %struct.request** %34, align 8
  call void @_Z8cleanReqP7request(%struct.request* %1112)
  br label %1126

1113:                                             ; preds = %1107
  %1114 = load %struct.request*, %struct.request** %34, align 8
  %1115 = getelementptr inbounds %struct.request, %struct.request* %1114, i32 0, i32 2
  %1116 = load i8, i8* %1115, align 1
  %1117 = add i8 %1116, 1
  store i8 %1117, i8* %1115, align 1
  %1118 = load i64, i64* %33, align 8
  %1119 = load %struct.request*, %struct.request** %34, align 8
  %1120 = getelementptr inbounds %struct.request, %struct.request* %1119, i32 0, i32 11
  %1121 = load i32, i32* %1120, align 8
  %1122 = zext i32 %1121 to i64
  %1123 = add nsw i64 %1118, %1122
  %1124 = load %struct.request*, %struct.request** %34, align 8
  %1125 = getelementptr inbounds %struct.request, %struct.request* %1124, i32 0, i32 4
  store i64 %1123, i64* %1125, align 8
  br label %1126

1126:                                             ; preds = %1113, %1111
  br label %1170

1127:                                             ; preds = %1098
  %1128 = call i32* @__errno_location() #18
  store i32 0, i32* %1128, align 4
  %1129 = load %struct.request*, %struct.request** %34, align 8
  %1130 = getelementptr inbounds %struct.request, %struct.request* %1129, i32 0, i32 3
  %1131 = load i8, i8* %1130, align 2
  %1132 = zext i8 %1131 to i64
  %1133 = getelementptr inbounds [8 x %struct.tftpConnType], [8 x %struct.tftpConnType]* getelementptr inbounds (%struct.data1, %struct.data1* @network, i32 0, i32 0), i64 0, i64 %1132
  %1134 = getelementptr inbounds %struct.tftpConnType, %struct.tftpConnType* %1133, i32 0, i32 0
  %1135 = load i32, i32* %1134, align 4
  %1136 = load %struct.request*, %struct.request** %34, align 8
  %1137 = getelementptr inbounds %struct.request, %struct.request* %1136, i32 0, i32 21
  %1138 = bitcast %union.anon.9* %1137 to %struct.acknowledgement*
  %1139 = bitcast %struct.acknowledgement* %1138 to i8*
  %1140 = load %struct.request*, %struct.request** %34, align 8
  %1141 = getelementptr inbounds %struct.request, %struct.request* %1140, i32 0, i32 17
  %1142 = load i32, i32* %1141, align 4
  %1143 = sext i32 %1142 to i64
  %1144 = load %struct.request*, %struct.request** %34, align 8
  %1145 = getelementptr inbounds %struct.request, %struct.request* %1144, i32 0, i32 18
  %1146 = bitcast %struct.sockaddr_in* %1145 to %struct.sockaddr*
  %1147 = load %struct.request*, %struct.request** %34, align 8
  %1148 = getelementptr inbounds %struct.request, %struct.request* %1147, i32 0, i32 19
  %1149 = load i32, i32* %1148, align 8
  %1150 = call i64 @sendto(i32 %1135, i8* %1139, i64 %1143, i32 0, %struct.sockaddr* %1146, i32 %1149)
  %1151 = call i32* @__errno_location() #18
  %1152 = load i32, i32* %1151, align 4
  %1153 = icmp ne i32 %1152, 0
  br i1 %1153, label %1154, label %1156

1154:                                             ; preds = %1127
  %1155 = load %struct.request*, %struct.request** %34, align 8
  call void @_Z8cleanReqP7request(%struct.request* %1155)
  br label %1169

1156:                                             ; preds = %1127
  %1157 = load %struct.request*, %struct.request** %34, align 8
  %1158 = getelementptr inbounds %struct.request, %struct.request* %1157, i32 0, i32 2
  %1159 = load i8, i8* %1158, align 1
  %1160 = add i8 %1159, 1
  store i8 %1160, i8* %1158, align 1
  %1161 = load i64, i64* %33, align 8
  %1162 = load %struct.request*, %struct.request** %34, align 8
  %1163 = getelementptr inbounds %struct.request, %struct.request* %1162, i32 0, i32 11
  %1164 = load i32, i32* %1163, align 8
  %1165 = zext i32 %1164 to i64
  %1166 = add nsw i64 %1161, %1165
  %1167 = load %struct.request*, %struct.request** %34, align 8
  %1168 = getelementptr inbounds %struct.request, %struct.request* %1167, i32 0, i32 4
  store i64 %1166, i64* %1168, align 8
  br label %1169

1169:                                             ; preds = %1156, %1154
  br label %1170

1170:                                             ; preds = %1169, %1126
  %1171 = call %"struct.std::_Rb_tree_node_base"* @_ZNSt17_Rb_tree_iteratorISt4pairIKlP7requestEEppEi(%"struct.std::_Rb_tree_iterator"* %31, i32 0) #2
  %1172 = getelementptr inbounds %"struct.std::_Rb_tree_iterator", %"struct.std::_Rb_tree_iterator"* %46, i32 0, i32 0
  store %"struct.std::_Rb_tree_node_base"* %1171, %"struct.std::_Rb_tree_node_base"** %1172, align 8
  br label %1176

1173:                                             ; preds = %1092
  %1174 = call %"struct.std::_Rb_tree_node_base"* @_ZNSt17_Rb_tree_iteratorISt4pairIKlP7requestEEppEi(%"struct.std::_Rb_tree_iterator"* %31, i32 0) #2
  %1175 = getelementptr inbounds %"struct.std::_Rb_tree_iterator", %"struct.std::_Rb_tree_iterator"* %47, i32 0, i32 0
  store %"struct.std::_Rb_tree_node_base"* %1174, %"struct.std::_Rb_tree_node_base"** %1175, align 8
  br label %1176

1176:                                             ; preds = %1173, %1170
  br label %1177

1177:                                             ; preds = %1176, %1079
  br label %1178

1178:                                             ; preds = %1177, %969
  br label %1179

1179:                                             ; preds = %1178
  br label %941

1180:                                             ; preds = %954, %941
  br label %1181

1181:                                             ; preds = %1180, %278
  %1182 = load i8, i8* @kRunning, align 1
  %1183 = trunc i8 %1182 to i1
  br i1 %1183, label %275, label %1184

1184:                                             ; preds = %1181
  %1185 = call i32 (i8*, i8*, ...) @sprintf(i8* getelementptr inbounds ([512 x i8], [512 x i8]* @logBuff, i32 0, i32 0), i8* getelementptr inbounds ([31 x i8], [31 x i8]* @.str.16, i32 0, i32 0)) #2
  call void @_Z7logMessPch(i8* getelementptr inbounds ([512 x i8], [512 x i8]* @logBuff, i32 0, i32 0), i8 zeroext 1)
  call void @_Z9closeConnv()
  %1186 = load i32, i32* getelementptr inbounds (%struct.data2, %struct.data2* @cfig, i32 0, i32 15), align 4
  %1187 = call i32 @close(i32 %1186)
  %1188 = call i32 (i8*, i8*, ...) @sprintf(i8* getelementptr inbounds ([512 x i8], [512 x i8]* @logBuff, i32 0, i32 0), i8* getelementptr inbounds ([22 x i8], [22 x i8]* @.str.17, i32 0, i32 0)) #2
  call void @_Z7logMessPch(i8* getelementptr inbounds ([512 x i8], [512 x i8]* @logBuff, i32 0, i32 0), i8 zeroext 1)
  %1189 = load %struct._IO_FILE*, %struct._IO_FILE** getelementptr inbounds (%struct.data2, %struct.data2* @cfig, i32 0, i32 2), align 8
  %1190 = icmp ne %struct._IO_FILE* %1189, null
  br i1 %1190, label %1191, label %1194

1191:                                             ; preds = %1184
  %1192 = load %struct._IO_FILE*, %struct._IO_FILE** getelementptr inbounds (%struct.data2, %struct.data2* @cfig, i32 0, i32 2), align 8
  %1193 = call i32 @fclose(%struct._IO_FILE* %1192)
  br label %1194

1194:                                             ; preds = %1191, %1184
  call void @exit(i32 0) #17
  unreachable

1195:                                             ; preds = %228
  %1196 = load i8, i8* getelementptr inbounds ([512 x i8], [512 x i8]* @logBuff, i64 0, i64 0), align 16
  %1197 = icmp ne i8 %1196, 0
  br i1 %1197, label %1198, label %1199

1198:                                             ; preds = %1195
  call void (i32, i8*, ...) @syslog(i32 138, i8* getelementptr inbounds ([512 x i8], [512 x i8]* @logBuff, i32 0, i32 0))
  call void @exit(i32 1) #17
  unreachable

1199:                                             ; preds = %1195
  %1200 = call i32 @fork() #2
  store i32 %1200, i32* %48, align 4
  %1201 = load i32, i32* %48, align 4
  %1202 = icmp slt i32 %1201, 0
  br i1 %1202, label %1203, label %1204

1203:                                             ; preds = %1199
  call void @exit(i32 1) #17
  unreachable

1204:                                             ; preds = %1199
  %1205 = load i32, i32* %48, align 4
  %1206 = icmp sgt i32 %1205, 0
  br i1 %1206, label %1207, label %1208

1207:                                             ; preds = %1204
  call void @exit(i32 0) #17
  unreachable

1208:                                             ; preds = %1204
  %1209 = call i32 @umask(i32 0) #2
  %1210 = call i32 @setsid() #2
  store i32 %1210, i32* %49, align 4
  %1211 = load i32, i32* %49, align 4
  %1212 = icmp slt i32 %1211, 0
  br i1 %1212, label %1213, label %1214

1213:                                             ; preds = %1208
  call void @exit(i32 1) #17
  unreachable

1214:                                             ; preds = %1208
  %1215 = call i32 @chdir(i8* getelementptr inbounds ([2 x i8], [2 x i8]* @.str.18, i32 0, i32 0)) #2
  %1216 = icmp slt i32 %1215, 0
  br i1 %1216, label %1217, label %1218

1217:                                             ; preds = %1214
  call void @exit(i32 1) #17
  unreachable

1218:                                             ; preds = %1214
  %1219 = call i32 @close(i32 0)
  %1220 = call i32 @close(i32 1)
  %1221 = call i32 @close(i32 2)
  %1222 = call i32 @pthread_attr_init(%union.pthread_attr_t* %51) #2
  %1223 = call i32 @pthread_attr_setdetachstate(%union.pthread_attr_t* %51, i32 1) #2
  %1224 = call i32 @pthread_create(i64* %50, %union.pthread_attr_t* %51, i8* (i8*)* @_Z4initPv, i8* null) #2
  store i32 %1224, i32* %52, align 4
  %1225 = call i32 @pthread_attr_destroy(%union.pthread_attr_t* %51) #2
  %1226 = load i32, i32* %52, align 4
  %1227 = icmp ne i32 %1226, 0
  br i1 %1227, label %1228, label %1232

1228:                                             ; preds = %1218
  %1229 = load i32, i32* %52, align 4
  %1230 = call i8* @strerror(i32 %1229) #2
  %1231 = call i32 (i8*, i8*, ...) @sprintf(i8* getelementptr inbounds ([512 x i8], [512 x i8]* @logBuff, i32 0, i32 0), i8* getelementptr inbounds ([49 x i8], [49 x i8]* @.str.7, i32 0, i32 0), i8* %1230) #2
  call void @_Z7logMessPch(i8* getelementptr inbounds ([512 x i8], [512 x i8]* @logBuff, i32 0, i32 0), i8 zeroext 1)
  call void @exit(i32 1) #17
  unreachable

1232:                                             ; preds = %1218
  %1233 = load i16, i16* @blksize, align 2
  %1234 = zext i16 %1233 to i32
  %1235 = add nsw i32 %1234, 4
  %1236 = sext i32 %1235 to i64
  %1237 = call noalias i8* @calloc(i64 1, i64 %1236) #2
  %1238 = bitcast i8* %1237 to %struct.packet*
  store %struct.packet* %1238, %struct.packet** @datain, align 8
  store i32 0, i32* %56, align 4
  %1239 = load %struct.packet*, %struct.packet** @datain, align 8
  %1240 = icmp ne %struct.packet* %1239, null
  br i1 %1240, label %1243, label %1241

1241:                                             ; preds = %1232
  %1242 = call i32 (i8*, i8*, ...) @sprintf(i8* getelementptr inbounds ([512 x i8], [512 x i8]* @logBuff, i32 0, i32 0), i8* getelementptr inbounds ([13 x i8], [13 x i8]* @.str.8, i32 0, i32 0)) #2
  call void @_Z7logMessPch(i8* getelementptr inbounds ([512 x i8], [512 x i8]* @logBuff, i32 0, i32 0), i8 zeroext 0)
  call void @exit(i32 1) #17
  unreachable

1243:                                             ; preds = %1232
  br label %1244

1244:                                             ; preds = %1253, %1243
  %1245 = load i8, i8* @kRunning, align 1
  %1246 = trunc i8 %1245 to i1
  br i1 %1246, label %1247, label %1251

1247:                                             ; preds = %1244
  %1248 = load i8, i8* getelementptr inbounds (%struct.data1, %struct.data1* @network, i32 0, i32 5), align 4
  %1249 = trunc i8 %1248 to i1
  %1250 = xor i1 %1249, true
  br label %1251

1251:                                             ; preds = %1247, %1244
  %1252 = phi i1 [ false, %1244 ], [ %1250, %1247 ]
  br i1 %1252, label %1253, label %1255

1253:                                             ; preds = %1251
  %1254 = call i32 @sleep(i32 1)
  br label %1244

1255:                                             ; preds = %1251
  %1256 = load i32, i32* getelementptr inbounds (%struct.data2, %struct.data2* @cfig, i32 0, i32 4), align 8
  %1257 = call i32 @setuid(i32 %1256) #2
  %1258 = load i32, i32* getelementptr inbounds (%struct.data2, %struct.data2* @cfig, i32 0, i32 5), align 4
  %1259 = call i32 @setgid(i32 %1258) #2
  br label %1260

1260:                                             ; preds = %2166, %1255
  store i8 0, i8* getelementptr inbounds (%struct.data1, %struct.data1* @network, i32 0, i32 6), align 1
  %1261 = load i8, i8* getelementptr inbounds (%struct.data1, %struct.data1* @network, i32 0, i32 5), align 4
  %1262 = trunc i8 %1261 to i1
  br i1 %1262, label %1265, label %1263

1263:                                             ; preds = %1260
  %1264 = call i32 @sleep(i32 1)
  br label %2166

1265:                                             ; preds = %1260
  br label %1266

1266:                                             ; preds = %1265
  %1267 = getelementptr inbounds %struct.fd_set, %struct.fd_set* %54, i32 0, i32 0
  %1268 = getelementptr inbounds [16 x i64], [16 x i64]* %1267, i64 0, i64 0
  %1269 = call { i64, i64* } asm sideeffect "cld; rep; stosq", "={cx},={di},{ax},0,1,~{memory},~{dirflag},~{fpsr},~{flags}"(i32 0, i64 16, i64* %1268) #2, !srcloc !3
  %1270 = extractvalue { i64, i64* } %1269, 0
  %1271 = extractvalue { i64, i64* } %1269, 1
  %1272 = trunc i64 %1270 to i32
  store i32 %1272, i32* %57, align 4
  %1273 = ptrtoint i64* %1271 to i64
  %1274 = trunc i64 %1273 to i32
  store i32 %1274, i32* %58, align 4
  br label %1275

1275:                                             ; preds = %1266
  %1276 = getelementptr inbounds %struct.timeval, %struct.timeval* %53, i32 0, i32 0
  store i64 1, i64* %1276, align 8
  %1277 = getelementptr inbounds %struct.timeval, %struct.timeval* %53, i32 0, i32 1
  store i64 0, i64* %1277, align 8
  store i32 0, i32* %59, align 4
  br label %1278

1278:                                             ; preds = %1310, %1275
  %1279 = load i32, i32* %59, align 4
  %1280 = icmp slt i32 %1279, 8
  br i1 %1280, label %1281, label %1288

1281:                                             ; preds = %1278
  %1282 = load i32, i32* %59, align 4
  %1283 = sext i32 %1282 to i64
  %1284 = getelementptr inbounds [8 x %struct.tftpConnType], [8 x %struct.tftpConnType]* getelementptr inbounds (%struct.data1, %struct.data1* @network, i32 0, i32 0), i64 0, i64 %1283
  %1285 = getelementptr inbounds %struct.tftpConnType, %struct.tftpConnType* %1284, i32 0, i32 4
  %1286 = load i8, i8* %1285, align 2
  %1287 = trunc i8 %1286 to i1
  br label %1288

1288:                                             ; preds = %1281, %1278
  %1289 = phi i1 [ false, %1278 ], [ %1287, %1281 ]
  br i1 %1289, label %1290, label %1313

1290:                                             ; preds = %1288
  %1291 = load i32, i32* %59, align 4
  %1292 = sext i32 %1291 to i64
  %1293 = getelementptr inbounds [8 x %struct.tftpConnType], [8 x %struct.tftpConnType]* getelementptr inbounds (%struct.data1, %struct.data1* @network, i32 0, i32 0), i64 0, i64 %1292
  %1294 = getelementptr inbounds %struct.tftpConnType, %struct.tftpConnType* %1293, i32 0, i32 0
  %1295 = load i32, i32* %1294, align 4
  %1296 = srem i32 %1295, 64
  %1297 = zext i32 %1296 to i64
  %1298 = shl i64 1, %1297
  %1299 = getelementptr inbounds %struct.fd_set, %struct.fd_set* %54, i32 0, i32 0
  %1300 = load i32, i32* %59, align 4
  %1301 = sext i32 %1300 to i64
  %1302 = getelementptr inbounds [8 x %struct.tftpConnType], [8 x %struct.tftpConnType]* getelementptr inbounds (%struct.data1, %struct.data1* @network, i32 0, i32 0), i64 0, i64 %1301
  %1303 = getelementptr inbounds %struct.tftpConnType, %struct.tftpConnType* %1302, i32 0, i32 0
  %1304 = load i32, i32* %1303, align 4
  %1305 = sdiv i32 %1304, 64
  %1306 = sext i32 %1305 to i64
  %1307 = getelementptr inbounds [16 x i64], [16 x i64]* %1299, i64 0, i64 %1306
  %1308 = load i64, i64* %1307, align 8
  %1309 = or i64 %1308, %1298
  store i64 %1309, i64* %1307, align 8
  br label %1310

1310:                                             ; preds = %1290
  %1311 = load i32, i32* %59, align 4
  %1312 = add nsw i32 %1311, 1
  store i32 %1312, i32* %59, align 4
  br label %1278

1313:                                             ; preds = %1288
  %1314 = load i32, i32* getelementptr inbounds (%struct.data1, %struct.data1* @network, i32 0, i32 7), align 4
  %1315 = call i32 @select(i32 %1314, %struct.fd_set* %54, %struct.fd_set* null, %struct.fd_set* null, %struct.timeval* %53)
  store i32 %1315, i32* %56, align 4
  store i32 0, i32* %60, align 4
  br label %1316

1316:                                             ; preds = %1919, %1313
  %1317 = load i32, i32* %56, align 4
  %1318 = icmp sgt i32 %1317, 0
  br i1 %1318, label %1319, label %1329

1319:                                             ; preds = %1316
  %1320 = load i32, i32* %60, align 4
  %1321 = icmp slt i32 %1320, 8
  br i1 %1321, label %1322, label %1329

1322:                                             ; preds = %1319
  %1323 = load i32, i32* %60, align 4
  %1324 = sext i32 %1323 to i64
  %1325 = getelementptr inbounds [8 x %struct.tftpConnType], [8 x %struct.tftpConnType]* getelementptr inbounds (%struct.data1, %struct.data1* @network, i32 0, i32 0), i64 0, i64 %1324
  %1326 = getelementptr inbounds %struct.tftpConnType, %struct.tftpConnType* %1325, i32 0, i32 4
  %1327 = load i8, i8* %1326, align 2
  %1328 = trunc i8 %1327 to i1
  br label %1329

1329:                                             ; preds = %1322, %1319, %1316
  %1330 = phi i1 [ false, %1319 ], [ false, %1316 ], [ %1328, %1322 ]
  br i1 %1330, label %1331, label %1922

1331:                                             ; preds = %1329
  %1332 = load i8, i8* getelementptr inbounds (%struct.data1, %struct.data1* @network, i32 0, i32 5), align 4
  %1333 = trunc i8 %1332 to i1
  br i1 %1333, label %1334, label %1918

1334:                                             ; preds = %1331
  store i8 1, i8* getelementptr inbounds (%struct.data1, %struct.data1* @network, i32 0, i32 6), align 1
  %1335 = getelementptr inbounds %struct.fd_set, %struct.fd_set* %54, i32 0, i32 0
  %1336 = load i32, i32* %60, align 4
  %1337 = sext i32 %1336 to i64
  %1338 = getelementptr inbounds [8 x %struct.tftpConnType], [8 x %struct.tftpConnType]* getelementptr inbounds (%struct.data1, %struct.data1* @network, i32 0, i32 0), i64 0, i64 %1337
  %1339 = getelementptr inbounds %struct.tftpConnType, %struct.tftpConnType* %1338, i32 0, i32 0
  %1340 = load i32, i32* %1339, align 4
  %1341 = sdiv i32 %1340, 64
  %1342 = sext i32 %1341 to i64
  %1343 = getelementptr inbounds [16 x i64], [16 x i64]* %1335, i64 0, i64 %1342
  %1344 = load i64, i64* %1343, align 8
  %1345 = load i32, i32* %60, align 4
  %1346 = sext i32 %1345 to i64
  %1347 = getelementptr inbounds [8 x %struct.tftpConnType], [8 x %struct.tftpConnType]* getelementptr inbounds (%struct.data1, %struct.data1* @network, i32 0, i32 0), i64 0, i64 %1346
  %1348 = getelementptr inbounds %struct.tftpConnType, %struct.tftpConnType* %1347, i32 0, i32 0
  %1349 = load i32, i32* %1348, align 4
  %1350 = srem i32 %1349, 64
  %1351 = zext i32 %1350 to i64
  %1352 = shl i64 1, %1351
  %1353 = and i64 %1344, %1352
  %1354 = icmp ne i64 %1353, 0
  br i1 %1354, label %1355, label %1917

1355:                                             ; preds = %1334
  %1356 = load i32, i32* %56, align 4
  %1357 = add nsw i32 %1356, -1
  store i32 %1357, i32* %56, align 4
  %1358 = bitcast %struct.request* %55 to i8*
  call void @llvm.memset.p0i8.i64(i8* align 8 %1358, i8 0, i64 920, i1 false)
  %1359 = load %struct.packet*, %struct.packet** @datain, align 8
  %1360 = bitcast %struct.packet* %1359 to i8*
  %1361 = load i16, i16* @blksize, align 2
  %1362 = zext i16 %1361 to i32
  %1363 = add nsw i32 %1362, 4
  %1364 = sext i32 %1363 to i64
  call void @llvm.memset.p0i8.i64(i8* align 2 %1360, i8 0, i64 %1364, i1 false)
  %1365 = getelementptr inbounds %struct.request, %struct.request* %55, i32 0, i32 19
  store i32 16, i32* %1365, align 8
  %1366 = load i32, i32* %60, align 4
  %1367 = trunc i32 %1366 to i8
  %1368 = getelementptr inbounds %struct.request, %struct.request* %55, i32 0, i32 3
  store i8 %1367, i8* %1368, align 2
  %1369 = call i32* @__errno_location() #18
  store i32 0, i32* %1369, align 4
  %1370 = getelementptr inbounds %struct.request, %struct.request* %55, i32 0, i32 3
  %1371 = load i8, i8* %1370, align 2
  %1372 = zext i8 %1371 to i64
  %1373 = getelementptr inbounds [8 x %struct.tftpConnType], [8 x %struct.tftpConnType]* getelementptr inbounds (%struct.data1, %struct.data1* @network, i32 0, i32 0), i64 0, i64 %1372
  %1374 = getelementptr inbounds %struct.tftpConnType, %struct.tftpConnType* %1373, i32 0, i32 0
  %1375 = load i32, i32* %1374, align 4
  %1376 = load %struct.packet*, %struct.packet** @datain, align 8
  %1377 = bitcast %struct.packet* %1376 to i8*
  %1378 = load i16, i16* @blksize, align 2
  %1379 = zext i16 %1378 to i32
  %1380 = add nsw i32 %1379, 4
  %1381 = sext i32 %1380 to i64
  %1382 = getelementptr inbounds %struct.request, %struct.request* %55, i32 0, i32 18
  %1383 = bitcast %struct.sockaddr_in* %1382 to %struct.sockaddr*
  %1384 = getelementptr inbounds %struct.request, %struct.request* %55, i32 0, i32 19
  %1385 = call i64 @recvfrom(i32 %1375, i8* %1377, i64 %1381, i32 0, %struct.sockaddr* %1383, i32* %1384)
  %1386 = trunc i64 %1385 to i32
  %1387 = getelementptr inbounds %struct.request, %struct.request* %55, i32 0, i32 15
  store i32 %1386, i32* %1387, align 4
  %1388 = getelementptr inbounds %struct.request, %struct.request* %55, i32 0, i32 15
  %1389 = load i32, i32* %1388, align 4
  %1390 = icmp slt i32 %1389, 4
  br i1 %1390, label %1395, label %1391

1391:                                             ; preds = %1355
  %1392 = call i32* @__errno_location() #18
  %1393 = load i32, i32* %1392, align 4
  %1394 = icmp ne i32 %1393, 0
  br i1 %1394, label %1395, label %1396

1395:                                             ; preds = %1391, %1355
  br label %1919

1396:                                             ; preds = %1391
  %1397 = getelementptr inbounds %struct.request, %struct.request* %55, i32 0, i32 0
  %1398 = getelementptr inbounds [32 x i8], [32 x i8]* %1397, i32 0, i32 0
  %1399 = getelementptr inbounds %struct.request, %struct.request* %55, i32 0, i32 18
  %1400 = getelementptr inbounds %struct.sockaddr_in, %struct.sockaddr_in* %1399, i32 0, i32 2
  %1401 = bitcast %struct.in_addr* %61 to i8*
  %1402 = bitcast %struct.in_addr* %1400 to i8*
  call void @llvm.memcpy.p0i8.p0i8.i64(i8* align 4 %1401, i8* align 4 %1402, i64 4, i1 false)
  %1403 = getelementptr inbounds %struct.in_addr, %struct.in_addr* %61, i32 0, i32 0
  %1404 = load i32, i32* %1403, align 4
  %1405 = call i8* @inet_ntoa(i32 %1404) #2
  %1406 = getelementptr inbounds %struct.request, %struct.request* %55, i32 0, i32 18
  %1407 = getelementptr inbounds %struct.sockaddr_in, %struct.sockaddr_in* %1406, i32 0, i32 1
  %1408 = load i16, i16* %1407, align 2
  %1409 = call zeroext i16 @ntohs(i16 zeroext %1408) #18
  %1410 = zext i16 %1409 to i32
  %1411 = call i32 (i8*, i8*, ...) @sprintf(i8* %1398, i8* getelementptr inbounds ([6 x i8], [6 x i8]* @.str.9, i32 0, i32 0), i8* %1405, i32 %1410) #2
  %1412 = getelementptr inbounds %struct.request, %struct.request* %55, i32 0, i32 0
  %1413 = getelementptr inbounds [32 x i8], [32 x i8]* %1412, i32 0, i32 0
  call void @_ZNSaIcEC1Ev(%"class.std::allocator.10"* %64) #2
  invoke void @_ZNSt7__cxx1112basic_stringIcSt11char_traitsIcESaIcEEC1EPKcRKS3_(%"class.std::__cxx11::basic_string"* %63, i8* %1413, %"class.std::allocator.10"* dereferenceable(1) %64)
          to label %1414 unwind label %1426

1414:                                             ; preds = %1396
  %1415 = invoke dereferenceable(8) %struct.request** @_ZNSt3mapINSt7__cxx1112basic_stringIcSt11char_traitsIcESaIcEEEP7requestSt4lessIS5_ESaISt4pairIKS5_S7_EEEixEOS5_(%"class.std::map"* @_Z9tftpCacheB5cxx11, %"class.std::__cxx11::basic_string"* dereferenceable(32) %63)
          to label %1416 unwind label %1430

1416:                                             ; preds = %1414
  %1417 = load %struct.request*, %struct.request** %1415, align 8
  call void @_ZNSt7__cxx1112basic_stringIcSt11char_traitsIcESaIcEED1Ev(%"class.std::__cxx11::basic_string"* %63) #2
  call void @_ZNSaIcED1Ev(%"class.std::allocator.10"* %64) #2
  store %struct.request* %1417, %struct.request** %62, align 8
  %1418 = load %struct.request*, %struct.request** %62, align 8
  %1419 = icmp ne %struct.request* %1418, null
  br i1 %1419, label %1444, label %1420

1420:                                             ; preds = %1416
  %1421 = getelementptr inbounds %struct.request, %struct.request* %55, i32 0, i32 0
  %1422 = getelementptr inbounds [32 x i8], [32 x i8]* %1421, i32 0, i32 0
  call void @_ZNSaIcEC1Ev(%"class.std::allocator.10"* %66) #2
  invoke void @_ZNSt7__cxx1112basic_stringIcSt11char_traitsIcESaIcEEC1EPKcRKS3_(%"class.std::__cxx11::basic_string"* %65, i8* %1422, %"class.std::allocator.10"* dereferenceable(1) %66)
          to label %1423 unwind label %1435

1423:                                             ; preds = %1420
  %1424 = invoke i64 @_ZNSt3mapINSt7__cxx1112basic_stringIcSt11char_traitsIcESaIcEEEP7requestSt4lessIS5_ESaISt4pairIKS5_S7_EEE5eraseERSB_(%"class.std::map"* @_Z9tftpCacheB5cxx11, %"class.std::__cxx11::basic_string"* dereferenceable(32) %65)
          to label %1425 unwind label %1439

1425:                                             ; preds = %1423
  call void @_ZNSt7__cxx1112basic_stringIcSt11char_traitsIcESaIcEED1Ev(%"class.std::__cxx11::basic_string"* %65) #2
  call void @_ZNSaIcED1Ev(%"class.std::allocator.10"* %66) #2
  br label %1444

1426:                                             ; preds = %1396
  %1427 = landingpad { i8*, i32 }
          cleanup
  %1428 = extractvalue { i8*, i32 } %1427, 0
  store i8* %1428, i8** %22, align 8
  %1429 = extractvalue { i8*, i32 } %1427, 1
  store i32 %1429, i32* %23, align 4
  br label %1434

1430:                                             ; preds = %1414
  %1431 = landingpad { i8*, i32 }
          cleanup
  %1432 = extractvalue { i8*, i32 } %1431, 0
  store i8* %1432, i8** %22, align 8
  %1433 = extractvalue { i8*, i32 } %1431, 1
  store i32 %1433, i32* %23, align 4
  call void @_ZNSt7__cxx1112basic_stringIcSt11char_traitsIcESaIcEED1Ev(%"class.std::__cxx11::basic_string"* %63) #2
  br label %1434

1434:                                             ; preds = %1430, %1426
  call void @_ZNSaIcED1Ev(%"class.std::allocator.10"* %64) #2
  br label %2182

1435:                                             ; preds = %1420
  %1436 = landingpad { i8*, i32 }
          cleanup
  %1437 = extractvalue { i8*, i32 } %1436, 0
  store i8* %1437, i8** %22, align 8
  %1438 = extractvalue { i8*, i32 } %1436, 1
  store i32 %1438, i32* %23, align 4
  br label %1443

1439:                                             ; preds = %1423
  %1440 = landingpad { i8*, i32 }
          cleanup
  %1441 = extractvalue { i8*, i32 } %1440, 0
  store i8* %1441, i8** %22, align 8
  %1442 = extractvalue { i8*, i32 } %1440, 1
  store i32 %1442, i32* %23, align 4
  call void @_ZNSt7__cxx1112basic_stringIcSt11char_traitsIcESaIcEED1Ev(%"class.std::__cxx11::basic_string"* %65) #2
  br label %1443

1443:                                             ; preds = %1439, %1435
  call void @_ZNSaIcED1Ev(%"class.std::allocator.10"* %66) #2
  br label %2182

1444:                                             ; preds = %1425, %1416
  %1445 = load %struct.request*, %struct.request** %62, align 8
  %1446 = icmp ne %struct.request* %1445, null
  br i1 %1446, label %1447, label %1774

1447:                                             ; preds = %1444
  %1448 = getelementptr inbounds %struct.request, %struct.request* %55, i32 0, i32 15
  %1449 = load i32, i32* %1448, align 4
  %1450 = load %struct.request*, %struct.request** %62, align 8
  %1451 = getelementptr inbounds %struct.request, %struct.request* %1450, i32 0, i32 15
  store i32 %1449, i32* %1451, align 4
  %1452 = load %struct.packet*, %struct.packet** @datain, align 8
  %1453 = getelementptr inbounds %struct.packet, %struct.packet* %1452, i32 0, i32 0
  %1454 = load i16, i16* %1453, align 2
  %1455 = call zeroext i16 @ntohs(i16 zeroext %1454) #18
  %1456 = zext i16 %1455 to i32
  %1457 = icmp eq i32 %1456, 3
  br i1 %1457, label %1458, label %1574

1458:                                             ; preds = %1447
  %1459 = load %struct.request*, %struct.request** %62, align 8
  %1460 = getelementptr inbounds %struct.request, %struct.request* %1459, i32 0, i32 1
  %1461 = load i8, i8* %1460, align 8
  %1462 = zext i8 %1461 to i32
  %1463 = icmp eq i32 %1462, 2
  br i1 %1463, label %1464, label %1574

1464:                                             ; preds = %1458
  %1465 = load %struct.request*, %struct.request** %62, align 8
  %1466 = getelementptr inbounds %struct.request, %struct.request* %1465, i32 0, i32 15
  %1467 = load i32, i32* %1466, align 4
  %1468 = trunc i32 %1467 to i16
  %1469 = zext i16 %1468 to i32
  %1470 = load %struct.request*, %struct.request** %62, align 8
  %1471 = getelementptr inbounds %struct.request, %struct.request* %1470, i32 0, i32 10
  %1472 = load i32, i32* %1471, align 4
  %1473 = add i32 %1472, 4
  %1474 = icmp ule i32 %1469, %1473
  br i1 %1474, label %1475, label %1529

1475:                                             ; preds = %1464
  %1476 = load %struct.request*, %struct.request** %62, align 8
  %1477 = getelementptr inbounds %struct.request, %struct.request* %1476, i32 0, i32 2
  %1478 = load i8, i8* %1477, align 1
  %1479 = zext i8 %1478 to i32
  %1480 = icmp sle i32 %1479, 3
  br i1 %1480, label %1481, label %1528

1481:                                             ; preds = %1475
  %1482 = load %struct.request*, %struct.request** %62, align 8
  %1483 = getelementptr inbounds %struct.request, %struct.request* %1482, i32 0, i32 13
  %1484 = load i16, i16* %1483, align 8
  %1485 = zext i16 %1484 to i32
  %1486 = add nsw i32 %1485, 1
  %1487 = trunc i32 %1486 to i16
  %1488 = load %struct.request*, %struct.request** %62, align 8
  %1489 = getelementptr inbounds %struct.request, %struct.request* %1488, i32 0, i32 14
  store i16 %1487, i16* %1489, align 2
  %1490 = load %struct.packet*, %struct.packet** @datain, align 8
  %1491 = getelementptr inbounds %struct.packet, %struct.packet* %1490, i32 0, i32 1
  %1492 = load i16, i16* %1491, align 2
  %1493 = call zeroext i16 @ntohs(i16 zeroext %1492) #18
  %1494 = zext i16 %1493 to i32
  %1495 = load %struct.request*, %struct.request** %62, align 8
  %1496 = getelementptr inbounds %struct.request, %struct.request* %1495, i32 0, i32 14
  %1497 = load i16, i16* %1496, align 2
  %1498 = zext i16 %1497 to i32
  %1499 = icmp eq i32 %1494, %1498
  br i1 %1499, label %1500, label %1527

1500:                                             ; preds = %1481
  %1501 = load %struct.request*, %struct.request** %62, align 8
  %1502 = getelementptr inbounds %struct.request, %struct.request* %1501, i32 0, i32 14
  %1503 = load i16, i16* %1502, align 2
  %1504 = load %struct.request*, %struct.request** %62, align 8
  %1505 = getelementptr inbounds %struct.request, %struct.request* %1504, i32 0, i32 13
  store i16 %1503, i16* %1505, align 8
  %1506 = load %struct.request*, %struct.request** %62, align 8
  %1507 = getelementptr inbounds %struct.request, %struct.request* %1506, i32 0, i32 12
  %1508 = load i32, i32* %1507, align 4
  %1509 = add i32 %1508, 1
  store i32 %1509, i32* %1507, align 4
  %1510 = load %struct.request*, %struct.request** %62, align 8
  %1511 = getelementptr inbounds %struct.request, %struct.request* %1510, i32 0, i32 2
  store i8 0, i8* %1511, align 1
  %1512 = call zeroext i16 @htons(i16 zeroext 4) #18
  %1513 = load %struct.request*, %struct.request** %62, align 8
  %1514 = getelementptr inbounds %struct.request, %struct.request* %1513, i32 0, i32 21
  %1515 = bitcast %union.anon.9* %1514 to %struct.acknowledgement*
  %1516 = getelementptr inbounds %struct.acknowledgement, %struct.acknowledgement* %1515, i32 0, i32 0
  store i16 %1512, i16* %1516, align 8
  %1517 = load %struct.request*, %struct.request** %62, align 8
  %1518 = getelementptr inbounds %struct.request, %struct.request* %1517, i32 0, i32 13
  %1519 = load i16, i16* %1518, align 8
  %1520 = call zeroext i16 @ntohs(i16 zeroext %1519) #18
  %1521 = load %struct.request*, %struct.request** %62, align 8
  %1522 = getelementptr inbounds %struct.request, %struct.request* %1521, i32 0, i32 21
  %1523 = bitcast %union.anon.9* %1522 to %struct.acknowledgement*
  %1524 = getelementptr inbounds %struct.acknowledgement, %struct.acknowledgement* %1523, i32 0, i32 1
  store i16 %1520, i16* %1524, align 2
  %1525 = load %struct.request*, %struct.request** %62, align 8
  %1526 = call i32 @_Z11processRecvP7request(%struct.request* %1525)
  br label %1527

1527:                                             ; preds = %1500, %1481
  br label %1528

1528:                                             ; preds = %1527, %1475
  br label %1573

1529:                                             ; preds = %1464
  %1530 = call zeroext i16 @htons(i16 zeroext 5) #18
  %1531 = load %struct.request*, %struct.request** %62, align 8
  %1532 = getelementptr inbounds %struct.request, %struct.request* %1531, i32 0, i32 21
  %1533 = bitcast %union.anon.9* %1532 to %struct.tftperror*
  %1534 = getelementptr inbounds %struct.tftperror, %struct.tftperror* %1533, i32 0, i32 0
  store i16 %1530, i16* %1534, align 8
  %1535 = call zeroext i16 @htons(i16 zeroext 4) #18
  %1536 = load %struct.request*, %struct.request** %62, align 8
  %1537 = getelementptr inbounds %struct.request, %struct.request* %1536, i32 0, i32 21
  %1538 = bitcast %union.anon.9* %1537 to %struct.tftperror*
  %1539 = getelementptr inbounds %struct.tftperror, %struct.tftperror* %1538, i32 0, i32 1
  store i16 %1535, i16* %1539, align 2
  %1540 = load %struct.request*, %struct.request** %62, align 8
  %1541 = getelementptr inbounds %struct.request, %struct.request* %1540, i32 0, i32 3
  %1542 = load i8, i8* %1541, align 2
  %1543 = zext i8 %1542 to i64
  %1544 = getelementptr inbounds [8 x %struct.tftpConnType], [8 x %struct.tftpConnType]* getelementptr inbounds (%struct.data1, %struct.data1* @network, i32 0, i32 0), i64 0, i64 %1543
  %1545 = getelementptr inbounds %struct.tftpConnType, %struct.tftpConnType* %1544, i32 0, i32 0
  %1546 = load i32, i32* %1545, align 4
  %1547 = load %struct.request*, %struct.request** %62, align 8
  %1548 = getelementptr inbounds %struct.request, %struct.request* %1547, i32 0, i32 21
  %1549 = bitcast %union.anon.9* %1548 to %struct.tftperror*
  %1550 = bitcast %struct.tftperror* %1549 to i8*
  %1551 = load %struct.request*, %struct.request** %62, align 8
  %1552 = getelementptr inbounds %struct.request, %struct.request* %1551, i32 0, i32 21
  %1553 = bitcast %union.anon.9* %1552 to %struct.tftperror*
  %1554 = getelementptr inbounds %struct.tftperror, %struct.tftperror* %1553, i32 0, i32 2
  %1555 = getelementptr inbounds [508 x i8], [508 x i8]* %1554, i32 0, i32 0
  %1556 = call i64 @strlen(i8* %1555) #16
  %1557 = add i64 %1556, 5
  %1558 = load %struct.request*, %struct.request** %62, align 8
  %1559 = getelementptr inbounds %struct.request, %struct.request* %1558, i32 0, i32 18
  %1560 = bitcast %struct.sockaddr_in* %1559 to %struct.sockaddr*
  %1561 = load %struct.request*, %struct.request** %62, align 8
  %1562 = getelementptr inbounds %struct.request, %struct.request* %1561, i32 0, i32 19
  %1563 = load i32, i32* %1562, align 8
  %1564 = call i64 @sendto(i32 %1546, i8* %1550, i64 %1557, i32 0, %struct.sockaddr* %1560, i32 %1563)
  %1565 = load %struct.request*, %struct.request** %62, align 8
  %1566 = getelementptr inbounds %struct.request, %struct.request* %1565, i32 0, i32 21
  %1567 = bitcast %union.anon.9* %1566 to %struct.tftperror*
  %1568 = getelementptr inbounds %struct.tftperror, %struct.tftperror* %1567, i32 0, i32 2
  %1569 = getelementptr inbounds [508 x i8], [508 x i8]* %1568, i32 0, i32 0
  %1570 = call i32 (i8*, i8*, ...) @sprintf(i8* %1569, i8* getelementptr inbounds ([33 x i8], [33 x i8]* @.str.10, i32 0, i32 0)) #2
  %1571 = load %struct.request*, %struct.request** %62, align 8
  call void @_Z7logMessP7requesth(%struct.request* %1571, i8 zeroext 1)
  %1572 = load %struct.request*, %struct.request** %62, align 8
  call void @_Z8cleanReqP7request(%struct.request* %1572)
  br label %1573

1573:                                             ; preds = %1529, %1528
  br label %1773

1574:                                             ; preds = %1458, %1447
  %1575 = load %struct.packet*, %struct.packet** @datain, align 8
  %1576 = getelementptr inbounds %struct.packet, %struct.packet* %1575, i32 0, i32 0
  %1577 = load i16, i16* %1576, align 2
  %1578 = call zeroext i16 @ntohs(i16 zeroext %1577) #18
  %1579 = zext i16 %1578 to i32
  %1580 = icmp eq i32 %1579, 4
  br i1 %1580, label %1581, label %1625

1581:                                             ; preds = %1574
  %1582 = load %struct.request*, %struct.request** %62, align 8
  %1583 = getelementptr inbounds %struct.request, %struct.request* %1582, i32 0, i32 1
  %1584 = load i8, i8* %1583, align 8
  %1585 = zext i8 %1584 to i32
  %1586 = icmp eq i32 %1585, 1
  br i1 %1586, label %1587, label %1625

1587:                                             ; preds = %1581
  %1588 = load %struct.request*, %struct.request** %62, align 8
  %1589 = getelementptr inbounds %struct.request, %struct.request* %1588, i32 0, i32 15
  %1590 = load i32, i32* %1589, align 4
  %1591 = icmp sge i32 %1590, 4
  br i1 %1591, label %1592, label %1624

1592:                                             ; preds = %1587
  %1593 = load %struct.request*, %struct.request** %62, align 8
  %1594 = getelementptr inbounds %struct.request, %struct.request* %1593, i32 0, i32 2
  %1595 = load i8, i8* %1594, align 1
  %1596 = zext i8 %1595 to i32
  %1597 = icmp sle i32 %1596, 3
  br i1 %1597, label %1598, label %1623

1598:                                             ; preds = %1592
  %1599 = load %struct.packet*, %struct.packet** @datain, align 8
  %1600 = getelementptr inbounds %struct.packet, %struct.packet* %1599, i32 0, i32 1
  %1601 = load i16, i16* %1600, align 2
  %1602 = call zeroext i16 @ntohs(i16 zeroext %1601) #18
  %1603 = zext i16 %1602 to i32
  %1604 = load %struct.request*, %struct.request** %62, align 8
  %1605 = getelementptr inbounds %struct.request, %struct.request* %1604, i32 0, i32 13
  %1606 = load i16, i16* %1605, align 8
  %1607 = zext i16 %1606 to i32
  %1608 = icmp eq i32 %1603, %1607
  br i1 %1608, label %1609, label %1622

1609:                                             ; preds = %1598
  %1610 = load %struct.request*, %struct.request** %62, align 8
  %1611 = getelementptr inbounds %struct.request, %struct.request* %1610, i32 0, i32 13
  %1612 = load i16, i16* %1611, align 8
  %1613 = add i16 %1612, 1
  store i16 %1613, i16* %1611, align 8
  %1614 = load %struct.request*, %struct.request** %62, align 8
  %1615 = getelementptr inbounds %struct.request, %struct.request* %1614, i32 0, i32 12
  %1616 = load i32, i32* %1615, align 4
  %1617 = add i32 %1616, 1
  store i32 %1617, i32* %1615, align 4
  %1618 = load %struct.request*, %struct.request** %62, align 8
  %1619 = getelementptr inbounds %struct.request, %struct.request* %1618, i32 0, i32 2
  store i8 0, i8* %1619, align 1
  %1620 = load %struct.request*, %struct.request** %62, align 8
  %1621 = call i32 @_Z11processSendP7request(%struct.request* %1620)
  br label %1622

1622:                                             ; preds = %1609, %1598
  br label %1623

1623:                                             ; preds = %1622, %1592
  br label %1624

1624:                                             ; preds = %1623, %1587
  br label %1772

1625:                                             ; preds = %1581, %1574
  %1626 = load %struct.request*, %struct.request** %62, align 8
  %1627 = getelementptr inbounds %struct.request, %struct.request* %1626, i32 0, i32 15
  %1628 = load i32, i32* %1627, align 4
  %1629 = icmp sgt i32 %1628, 516
  br i1 %1629, label %1630, label %1674

1630:                                             ; preds = %1625
  %1631 = call zeroext i16 @htons(i16 zeroext 5) #18
  %1632 = load %struct.request*, %struct.request** %62, align 8
  %1633 = getelementptr inbounds %struct.request, %struct.request* %1632, i32 0, i32 21
  %1634 = bitcast %union.anon.9* %1633 to %struct.tftperror*
  %1635 = getelementptr inbounds %struct.tftperror, %struct.tftperror* %1634, i32 0, i32 0
  store i16 %1631, i16* %1635, align 8
  %1636 = call zeroext i16 @htons(i16 zeroext 4) #18
  %1637 = load %struct.request*, %struct.request** %62, align 8
  %1638 = getelementptr inbounds %struct.request, %struct.request* %1637, i32 0, i32 21
  %1639 = bitcast %union.anon.9* %1638 to %struct.tftperror*
  %1640 = getelementptr inbounds %struct.tftperror, %struct.tftperror* %1639, i32 0, i32 1
  store i16 %1636, i16* %1640, align 2
  %1641 = load %struct.request*, %struct.request** %62, align 8
  %1642 = getelementptr inbounds %struct.request, %struct.request* %1641, i32 0, i32 3
  %1643 = load i8, i8* %1642, align 2
  %1644 = zext i8 %1643 to i64
  %1645 = getelementptr inbounds [8 x %struct.tftpConnType], [8 x %struct.tftpConnType]* getelementptr inbounds (%struct.data1, %struct.data1* @network, i32 0, i32 0), i64 0, i64 %1644
  %1646 = getelementptr inbounds %struct.tftpConnType, %struct.tftpConnType* %1645, i32 0, i32 0
  %1647 = load i32, i32* %1646, align 4
  %1648 = load %struct.request*, %struct.request** %62, align 8
  %1649 = getelementptr inbounds %struct.request, %struct.request* %1648, i32 0, i32 21
  %1650 = bitcast %union.anon.9* %1649 to %struct.tftperror*
  %1651 = bitcast %struct.tftperror* %1650 to i8*
  %1652 = load %struct.request*, %struct.request** %62, align 8
  %1653 = getelementptr inbounds %struct.request, %struct.request* %1652, i32 0, i32 21
  %1654 = bitcast %union.anon.9* %1653 to %struct.tftperror*
  %1655 = getelementptr inbounds %struct.tftperror, %struct.tftperror* %1654, i32 0, i32 2
  %1656 = getelementptr inbounds [508 x i8], [508 x i8]* %1655, i32 0, i32 0
  %1657 = call i64 @strlen(i8* %1656) #16
  %1658 = add i64 %1657, 5
  %1659 = load %struct.request*, %struct.request** %62, align 8
  %1660 = getelementptr inbounds %struct.request, %struct.request* %1659, i32 0, i32 18
  %1661 = bitcast %struct.sockaddr_in* %1660 to %struct.sockaddr*
  %1662 = load %struct.request*, %struct.request** %62, align 8
  %1663 = getelementptr inbounds %struct.request, %struct.request* %1662, i32 0, i32 19
  %1664 = load i32, i32* %1663, align 8
  %1665 = call i64 @sendto(i32 %1647, i8* %1651, i64 %1658, i32 0, %struct.sockaddr* %1661, i32 %1664)
  %1666 = load %struct.request*, %struct.request** %62, align 8
  %1667 = getelementptr inbounds %struct.request, %struct.request* %1666, i32 0, i32 21
  %1668 = bitcast %union.anon.9* %1667 to %struct.tftperror*
  %1669 = getelementptr inbounds %struct.tftperror, %struct.tftperror* %1668, i32 0, i32 2
  %1670 = getelementptr inbounds [508 x i8], [508 x i8]* %1669, i32 0, i32 0
  %1671 = call i32 (i8*, i8*, ...) @sprintf(i8* %1670, i8* getelementptr inbounds ([33 x i8], [33 x i8]* @.str.10, i32 0, i32 0)) #2
  %1672 = load %struct.request*, %struct.request** %62, align 8
  call void @_Z7logMessP7requesth(%struct.request* %1672, i8 zeroext 1)
  %1673 = load %struct.request*, %struct.request** %62, align 8
  call void @_Z8cleanReqP7request(%struct.request* %1673)
  br label %1771

1674:                                             ; preds = %1625
  %1675 = load %struct.packet*, %struct.packet** @datain, align 8
  %1676 = getelementptr inbounds %struct.packet, %struct.packet* %1675, i32 0, i32 0
  %1677 = load i16, i16* %1676, align 2
  %1678 = call zeroext i16 @ntohs(i16 zeroext %1677) #18
  %1679 = zext i16 %1678 to i32
  %1680 = icmp eq i32 %1679, 1
  br i1 %1680, label %1688, label %1681

1681:                                             ; preds = %1674
  %1682 = load %struct.packet*, %struct.packet** @datain, align 8
  %1683 = getelementptr inbounds %struct.packet, %struct.packet* %1682, i32 0, i32 0
  %1684 = load i16, i16* %1683, align 2
  %1685 = call zeroext i16 @ntohs(i16 zeroext %1684) #18
  %1686 = zext i16 %1685 to i32
  %1687 = icmp eq i32 %1686, 2
  br i1 %1687, label %1688, label %1697

1688:                                             ; preds = %1681, %1674
  %1689 = load %struct.request*, %struct.request** %62, align 8
  call void @_Z8cleanReqP7request(%struct.request* %1689)
  %1690 = call i32 @_Z10processNewP7request(%struct.request* %55)
  %1691 = icmp ne i32 %1690, 0
  br i1 %1691, label %1696, label %1692

1692:                                             ; preds = %1688
  %1693 = load %struct.request*, %struct.request** %62, align 8
  %1694 = bitcast %struct.request* %1693 to i8*
  %1695 = bitcast %struct.request* %55 to i8*
  call void @llvm.memcpy.p0i8.p0i8.i64(i8* align 8 %1694, i8* align 8 %1695, i64 920, i1 false)
  br label %1696

1696:                                             ; preds = %1692, %1688
  br label %1770

1697:                                             ; preds = %1681
  %1698 = load %struct.packet*, %struct.packet** @datain, align 8
  %1699 = getelementptr inbounds %struct.packet, %struct.packet* %1698, i32 0, i32 0
  %1700 = load i16, i16* %1699, align 2
  %1701 = call zeroext i16 @ntohs(i16 zeroext %1700) #18
  %1702 = zext i16 %1701 to i32
  %1703 = icmp eq i32 %1702, 5
  br i1 %1703, label %1704, label %1720

1704:                                             ; preds = %1697
  %1705 = load %struct.request*, %struct.request** %62, align 8
  %1706 = getelementptr inbounds %struct.request, %struct.request* %1705, i32 0, i32 21
  %1707 = bitcast %union.anon.9* %1706 to %struct.tftperror*
  %1708 = getelementptr inbounds %struct.tftperror, %struct.tftperror* %1707, i32 0, i32 2
  %1709 = getelementptr inbounds [508 x i8], [508 x i8]* %1708, i32 0, i32 0
  %1710 = load %struct.packet*, %struct.packet** @datain, align 8
  %1711 = getelementptr inbounds %struct.packet, %struct.packet* %1710, i32 0, i32 1
  %1712 = load i16, i16* %1711, align 2
  %1713 = call zeroext i16 @ntohs(i16 zeroext %1712) #18
  %1714 = zext i16 %1713 to i32
  %1715 = load %struct.packet*, %struct.packet** @datain, align 8
  %1716 = getelementptr inbounds %struct.packet, %struct.packet* %1715, i32 0, i32 2
  %1717 = call i32 (i8*, i8*, ...) @sprintf(i8* %1709, i8* getelementptr inbounds ([23 x i8], [23 x i8]* @.str.11, i32 0, i32 0), i32 %1714, i8* %1716) #2
  %1718 = load %struct.request*, %struct.request** %62, align 8
  call void @_Z7logMessP7requesth(%struct.request* %1718, i8 zeroext 1)
  %1719 = load %struct.request*, %struct.request** %62, align 8
  call void @_Z8cleanReqP7request(%struct.request* %1719)
  br label %1769

1720:                                             ; preds = %1697
  %1721 = call zeroext i16 @htons(i16 zeroext 5) #18
  %1722 = load %struct.request*, %struct.request** %62, align 8
  %1723 = getelementptr inbounds %struct.request, %struct.request* %1722, i32 0, i32 21
  %1724 = bitcast %union.anon.9* %1723 to %struct.tftperror*
  %1725 = getelementptr inbounds %struct.tftperror, %struct.tftperror* %1724, i32 0, i32 0
  store i16 %1721, i16* %1725, align 8
  %1726 = call zeroext i16 @htons(i16 zeroext 4) #18
  %1727 = load %struct.request*, %struct.request** %62, align 8
  %1728 = getelementptr inbounds %struct.request, %struct.request* %1727, i32 0, i32 21
  %1729 = bitcast %union.anon.9* %1728 to %struct.tftperror*
  %1730 = getelementptr inbounds %struct.tftperror, %struct.tftperror* %1729, i32 0, i32 1
  store i16 %1726, i16* %1730, align 2
  %1731 = load %struct.request*, %struct.request** %62, align 8
  %1732 = getelementptr inbounds %struct.request, %struct.request* %1731, i32 0, i32 21
  %1733 = bitcast %union.anon.9* %1732 to %struct.tftperror*
  %1734 = getelementptr inbounds %struct.tftperror, %struct.tftperror* %1733, i32 0, i32 2
  %1735 = getelementptr inbounds [508 x i8], [508 x i8]* %1734, i32 0, i32 0
  %1736 = load %struct.packet*, %struct.packet** @datain, align 8
  %1737 = getelementptr inbounds %struct.packet, %struct.packet* %1736, i32 0, i32 0
  %1738 = load i16, i16* %1737, align 2
  %1739 = call zeroext i16 @ntohs(i16 zeroext %1738) #18
  %1740 = zext i16 %1739 to i32
  %1741 = call i32 (i8*, i8*, ...) @sprintf(i8* %1735, i8* getelementptr inbounds ([26 x i8], [26 x i8]* @.str.12, i32 0, i32 0), i32 %1740) #2
  %1742 = load %struct.request*, %struct.request** %62, align 8
  %1743 = getelementptr inbounds %struct.request, %struct.request* %1742, i32 0, i32 3
  %1744 = load i8, i8* %1743, align 2
  %1745 = zext i8 %1744 to i64
  %1746 = getelementptr inbounds [8 x %struct.tftpConnType], [8 x %struct.tftpConnType]* getelementptr inbounds (%struct.data1, %struct.data1* @network, i32 0, i32 0), i64 0, i64 %1745
  %1747 = getelementptr inbounds %struct.tftpConnType, %struct.tftpConnType* %1746, i32 0, i32 0
  %1748 = load i32, i32* %1747, align 4
  %1749 = load %struct.request*, %struct.request** %62, align 8
  %1750 = getelementptr inbounds %struct.request, %struct.request* %1749, i32 0, i32 21
  %1751 = bitcast %union.anon.9* %1750 to %struct.tftperror*
  %1752 = bitcast %struct.tftperror* %1751 to i8*
  %1753 = load %struct.request*, %struct.request** %62, align 8
  %1754 = getelementptr inbounds %struct.request, %struct.request* %1753, i32 0, i32 21
  %1755 = bitcast %union.anon.9* %1754 to %struct.tftperror*
  %1756 = getelementptr inbounds %struct.tftperror, %struct.tftperror* %1755, i32 0, i32 2
  %1757 = getelementptr inbounds [508 x i8], [508 x i8]* %1756, i32 0, i32 0
  %1758 = call i64 @strlen(i8* %1757) #16
  %1759 = add i64 %1758, 5
  %1760 = load %struct.request*, %struct.request** %62, align 8
  %1761 = getelementptr inbounds %struct.request, %struct.request* %1760, i32 0, i32 18
  %1762 = bitcast %struct.sockaddr_in* %1761 to %struct.sockaddr*
  %1763 = load %struct.request*, %struct.request** %62, align 8
  %1764 = getelementptr inbounds %struct.request, %struct.request* %1763, i32 0, i32 19
  %1765 = load i32, i32* %1764, align 8
  %1766 = call i64 @sendto(i32 %1748, i8* %1752, i64 %1759, i32 0, %struct.sockaddr* %1762, i32 %1765)
  %1767 = load %struct.request*, %struct.request** %62, align 8
  call void @_Z7logMessP7requesth(%struct.request* %1767, i8 zeroext 1)
  %1768 = load %struct.request*, %struct.request** %62, align 8
  call void @_Z8cleanReqP7request(%struct.request* %1768)
  br label %1769

1769:                                             ; preds = %1720, %1704
  br label %1770

1770:                                             ; preds = %1769, %1696
  br label %1771

1771:                                             ; preds = %1770, %1630
  br label %1772

1772:                                             ; preds = %1771, %1624
  br label %1773

1773:                                             ; preds = %1772, %1573
  br label %1916

1774:                                             ; preds = %1444
  %1775 = getelementptr inbounds %struct.request, %struct.request* %55, i32 0, i32 15
  %1776 = load i32, i32* %1775, align 4
  %1777 = icmp sgt i32 %1776, 516
  br i1 %1777, label %1778, label %1811

1778:                                             ; preds = %1774
  %1779 = call zeroext i16 @htons(i16 zeroext 5) #18
  %1780 = getelementptr inbounds %struct.request, %struct.request* %55, i32 0, i32 21
  %1781 = bitcast %union.anon.9* %1780 to %struct.tftperror*
  %1782 = getelementptr inbounds %struct.tftperror, %struct.tftperror* %1781, i32 0, i32 0
  store i16 %1779, i16* %1782, align 8
  %1783 = call zeroext i16 @htons(i16 zeroext 4) #18
  %1784 = getelementptr inbounds %struct.request, %struct.request* %55, i32 0, i32 21
  %1785 = bitcast %union.anon.9* %1784 to %struct.tftperror*
  %1786 = getelementptr inbounds %struct.tftperror, %struct.tftperror* %1785, i32 0, i32 1
  store i16 %1783, i16* %1786, align 2
  %1787 = getelementptr inbounds %struct.request, %struct.request* %55, i32 0, i32 21
  %1788 = bitcast %union.anon.9* %1787 to %struct.tftperror*
  %1789 = getelementptr inbounds %struct.tftperror, %struct.tftperror* %1788, i32 0, i32 2
  %1790 = getelementptr inbounds [508 x i8], [508 x i8]* %1789, i32 0, i32 0
  %1791 = call i32 (i8*, i8*, ...) @sprintf(i8* %1790, i8* getelementptr inbounds ([33 x i8], [33 x i8]* @.str.10, i32 0, i32 0)) #2
  %1792 = load i32, i32* %60, align 4
  %1793 = sext i32 %1792 to i64
  %1794 = getelementptr inbounds [8 x %struct.tftpConnType], [8 x %struct.tftpConnType]* getelementptr inbounds (%struct.data1, %struct.data1* @network, i32 0, i32 0), i64 0, i64 %1793
  %1795 = getelementptr inbounds %struct.tftpConnType, %struct.tftpConnType* %1794, i32 0, i32 0
  %1796 = load i32, i32* %1795, align 4
  %1797 = getelementptr inbounds %struct.request, %struct.request* %55, i32 0, i32 21
  %1798 = bitcast %union.anon.9* %1797 to %struct.tftperror*
  %1799 = bitcast %struct.tftperror* %1798 to i8*
  %1800 = getelementptr inbounds %struct.request, %struct.request* %55, i32 0, i32 21
  %1801 = bitcast %union.anon.9* %1800 to %struct.tftperror*
  %1802 = getelementptr inbounds %struct.tftperror, %struct.tftperror* %1801, i32 0, i32 2
  %1803 = getelementptr inbounds [508 x i8], [508 x i8]* %1802, i32 0, i32 0
  %1804 = call i64 @strlen(i8* %1803) #16
  %1805 = add i64 %1804, 5
  %1806 = getelementptr inbounds %struct.request, %struct.request* %55, i32 0, i32 18
  %1807 = bitcast %struct.sockaddr_in* %1806 to %struct.sockaddr*
  %1808 = getelementptr inbounds %struct.request, %struct.request* %55, i32 0, i32 19
  %1809 = load i32, i32* %1808, align 8
  %1810 = call i64 @sendto(i32 %1796, i8* %1799, i64 %1805, i32 0, %struct.sockaddr* %1807, i32 %1809)
  call void @_Z7logMessP7requesth(%struct.request* %55, i8 zeroext 1)
  br label %1915

1811:                                             ; preds = %1774
  %1812 = load %struct.packet*, %struct.packet** @datain, align 8
  %1813 = getelementptr inbounds %struct.packet, %struct.packet* %1812, i32 0, i32 0
  %1814 = load i16, i16* %1813, align 2
  %1815 = call zeroext i16 @ntohs(i16 zeroext %1814) #18
  %1816 = zext i16 %1815 to i32
  %1817 = icmp eq i32 %1816, 5
  br i1 %1817, label %1818, label %1831

1818:                                             ; preds = %1811
  %1819 = getelementptr inbounds %struct.request, %struct.request* %55, i32 0, i32 21
  %1820 = bitcast %union.anon.9* %1819 to %struct.tftperror*
  %1821 = getelementptr inbounds %struct.tftperror, %struct.tftperror* %1820, i32 0, i32 2
  %1822 = getelementptr inbounds [508 x i8], [508 x i8]* %1821, i32 0, i32 0
  %1823 = load %struct.packet*, %struct.packet** @datain, align 8
  %1824 = getelementptr inbounds %struct.packet, %struct.packet* %1823, i32 0, i32 1
  %1825 = load i16, i16* %1824, align 2
  %1826 = call zeroext i16 @ntohs(i16 zeroext %1825) #18
  %1827 = zext i16 %1826 to i32
  %1828 = load %struct.packet*, %struct.packet** @datain, align 8
  %1829 = getelementptr inbounds %struct.packet, %struct.packet* %1828, i32 0, i32 2
  %1830 = call i32 (i8*, i8*, ...) @sprintf(i8* %1822, i8* getelementptr inbounds ([23 x i8], [23 x i8]* @.str.11, i32 0, i32 0), i32 %1827, i8* %1829) #2
  call void @_Z7logMessP7requesth(%struct.request* %55, i8 zeroext 1)
  br label %1914

1831:                                             ; preds = %1811
  %1832 = load %struct.packet*, %struct.packet** @datain, align 8
  %1833 = getelementptr inbounds %struct.packet, %struct.packet* %1832, i32 0, i32 0
  %1834 = load i16, i16* %1833, align 2
  %1835 = call zeroext i16 @ntohs(i16 zeroext %1834) #18
  %1836 = zext i16 %1835 to i32
  %1837 = icmp ne i32 %1836, 1
  br i1 %1837, label %1838, label %1878

1838:                                             ; preds = %1831
  %1839 = load %struct.packet*, %struct.packet** @datain, align 8
  %1840 = getelementptr inbounds %struct.packet, %struct.packet* %1839, i32 0, i32 0
  %1841 = load i16, i16* %1840, align 2
  %1842 = call zeroext i16 @ntohs(i16 zeroext %1841) #18
  %1843 = zext i16 %1842 to i32
  %1844 = icmp ne i32 %1843, 2
  br i1 %1844, label %1845, label %1878

1845:                                             ; preds = %1838
  %1846 = call zeroext i16 @htons(i16 zeroext 5) #18
  %1847 = getelementptr inbounds %struct.request, %struct.request* %55, i32 0, i32 21
  %1848 = bitcast %union.anon.9* %1847 to %struct.tftperror*
  %1849 = getelementptr inbounds %struct.tftperror, %struct.tftperror* %1848, i32 0, i32 0
  store i16 %1846, i16* %1849, align 8
  %1850 = call zeroext i16 @htons(i16 zeroext 5) #18
  %1851 = getelementptr inbounds %struct.request, %struct.request* %55, i32 0, i32 21
  %1852 = bitcast %union.anon.9* %1851 to %struct.tftperror*
  %1853 = getelementptr inbounds %struct.tftperror, %struct.tftperror* %1852, i32 0, i32 1
  store i16 %1850, i16* %1853, align 2
  %1854 = getelementptr inbounds %struct.request, %struct.request* %55, i32 0, i32 21
  %1855 = bitcast %union.anon.9* %1854 to %struct.tftperror*
  %1856 = getelementptr inbounds %struct.tftperror, %struct.tftperror* %1855, i32 0, i32 2
  %1857 = getelementptr inbounds [508 x i8], [508 x i8]* %1856, i32 0, i32 0
  %1858 = call i32 (i8*, i8*, ...) @sprintf(i8* %1857, i8* getelementptr inbounds ([20 x i8], [20 x i8]* @.str.13, i32 0, i32 0)) #2
  %1859 = load i32, i32* %60, align 4
  %1860 = sext i32 %1859 to i64
  %1861 = getelementptr inbounds [8 x %struct.tftpConnType], [8 x %struct.tftpConnType]* getelementptr inbounds (%struct.data1, %struct.data1* @network, i32 0, i32 0), i64 0, i64 %1860
  %1862 = getelementptr inbounds %struct.tftpConnType, %struct.tftpConnType* %1861, i32 0, i32 0
  %1863 = load i32, i32* %1862, align 4
  %1864 = getelementptr inbounds %struct.request, %struct.request* %55, i32 0, i32 21
  %1865 = bitcast %union.anon.9* %1864 to %struct.tftperror*
  %1866 = bitcast %struct.tftperror* %1865 to i8*
  %1867 = getelementptr inbounds %struct.request, %struct.request* %55, i32 0, i32 21
  %1868 = bitcast %union.anon.9* %1867 to %struct.tftperror*
  %1869 = getelementptr inbounds %struct.tftperror, %struct.tftperror* %1868, i32 0, i32 2
  %1870 = getelementptr inbounds [508 x i8], [508 x i8]* %1869, i32 0, i32 0
  %1871 = call i64 @strlen(i8* %1870) #16
  %1872 = add i64 %1871, 5
  %1873 = getelementptr inbounds %struct.request, %struct.request* %55, i32 0, i32 18
  %1874 = bitcast %struct.sockaddr_in* %1873 to %struct.sockaddr*
  %1875 = getelementptr inbounds %struct.request, %struct.request* %55, i32 0, i32 19
  %1876 = load i32, i32* %1875, align 8
  %1877 = call i64 @sendto(i32 %1863, i8* %1866, i64 %1872, i32 0, %struct.sockaddr* %1874, i32 %1876)
  call void @_Z7logMessP7requesth(%struct.request* %55, i8 zeroext 1)
  br label %1913

1878:                                             ; preds = %1838, %1831
  %1879 = call i32 @_Z10processNewP7request(%struct.request* %55)
  %1880 = icmp ne i32 %1879, 0
  br i1 %1880, label %1912, label %1881

1881:                                             ; preds = %1878
  %1882 = call noalias i8* @calloc(i64 1, i64 920) #2
  %1883 = bitcast i8* %1882 to %struct.request*
  store %struct.request* %1883, %struct.request** %67, align 8
  %1884 = load %struct.request*, %struct.request** %67, align 8
  %1885 = icmp ne %struct.request* %1884, null
  br i1 %1885, label %1888, label %1886

1886:                                             ; preds = %1881
  %1887 = call i32 (i8*, i8*, ...) @sprintf(i8* getelementptr inbounds ([512 x i8], [512 x i8]* @logBuff, i32 0, i32 0), i8* getelementptr inbounds ([13 x i8], [13 x i8]* @.str.8, i32 0, i32 0)) #2
  call void @_Z7logMessPch(i8* getelementptr inbounds ([512 x i8], [512 x i8]* @logBuff, i32 0, i32 0), i8 zeroext 1)
  br label %1919

1888:                                             ; preds = %1881
  %1889 = load %struct.request*, %struct.request** %67, align 8
  %1890 = bitcast %struct.request* %1889 to i8*
  %1891 = bitcast %struct.request* %55 to i8*
  call void @llvm.memcpy.p0i8.p0i8.i64(i8* align 8 %1890, i8* align 8 %1891, i64 920, i1 false)
  %1892 = load %struct.request*, %struct.request** %67, align 8
  %1893 = load %struct.request*, %struct.request** %67, align 8
  %1894 = getelementptr inbounds %struct.request, %struct.request* %1893, i32 0, i32 0
  %1895 = getelementptr inbounds [32 x i8], [32 x i8]* %1894, i32 0, i32 0
  call void @_ZNSaIcEC1Ev(%"class.std::allocator.10"* %69) #2
  invoke void @_ZNSt7__cxx1112basic_stringIcSt11char_traitsIcESaIcEEC1EPKcRKS3_(%"class.std::__cxx11::basic_string"* %68, i8* %1895, %"class.std::allocator.10"* dereferenceable(1) %69)
          to label %1896 unwind label %1903

1896:                                             ; preds = %1888
  %1897 = invoke dereferenceable(8) %struct.request** @_ZNSt3mapINSt7__cxx1112basic_stringIcSt11char_traitsIcESaIcEEEP7requestSt4lessIS5_ESaISt4pairIKS5_S7_EEEixEOS5_(%"class.std::map"* @_Z9tftpCacheB5cxx11, %"class.std::__cxx11::basic_string"* dereferenceable(32) %68)
          to label %1898 unwind label %1907

1898:                                             ; preds = %1896
  store %struct.request* %1892, %struct.request** %1897, align 8
  call void @_ZNSt7__cxx1112basic_stringIcSt11char_traitsIcESaIcEED1Ev(%"class.std::__cxx11::basic_string"* %68) #2
  call void @_ZNSaIcED1Ev(%"class.std::allocator.10"* %69) #2
  %1899 = load %struct.request*, %struct.request** %67, align 8
  %1900 = getelementptr inbounds %struct.request, %struct.request* %1899, i32 0, i32 4
  call void @_ZNSt4pairIlP7requestEC2IRlRS1_Lb1EEEOT_OT0_(%"struct.std::pair"* %70, i64* dereferenceable(8) %1900, %struct.request** dereferenceable(8) %67)
  %1901 = call %"struct.std::_Rb_tree_node_base"* @_ZNSt8multimapIlP7requestSt4lessIlESaISt4pairIKlS1_EEE6insertIS4_IlS1_EEENSt9enable_ifIXsr16is_constructibleIS6_T_EE5valueESt17_Rb_tree_iteratorIS6_EE4typeEOSC_(%"class.std::multimap"* @tftpAge, %"struct.std::pair"* dereferenceable(16) %70)
  %1902 = getelementptr inbounds %"struct.std::_Rb_tree_iterator", %"struct.std::_Rb_tree_iterator"* %71, i32 0, i32 0
  store %"struct.std::_Rb_tree_node_base"* %1901, %"struct.std::_Rb_tree_node_base"** %1902, align 8
  br label %1912

1903:                                             ; preds = %1888
  %1904 = landingpad { i8*, i32 }
          cleanup
  %1905 = extractvalue { i8*, i32 } %1904, 0
  store i8* %1905, i8** %22, align 8
  %1906 = extractvalue { i8*, i32 } %1904, 1
  store i32 %1906, i32* %23, align 4
  br label %1911

1907:                                             ; preds = %1896
  %1908 = landingpad { i8*, i32 }
          cleanup
  %1909 = extractvalue { i8*, i32 } %1908, 0
  store i8* %1909, i8** %22, align 8
  %1910 = extractvalue { i8*, i32 } %1908, 1
  store i32 %1910, i32* %23, align 4
  call void @_ZNSt7__cxx1112basic_stringIcSt11char_traitsIcESaIcEED1Ev(%"class.std::__cxx11::basic_string"* %68) #2
  br label %1911

1911:                                             ; preds = %1907, %1903
  call void @_ZNSaIcED1Ev(%"class.std::allocator.10"* %69) #2
  br label %2182

1912:                                             ; preds = %1898, %1878
  br label %1913

1913:                                             ; preds = %1912, %1845
  br label %1914

1914:                                             ; preds = %1913, %1818
  br label %1915

1915:                                             ; preds = %1914, %1778
  br label %1916

1916:                                             ; preds = %1915, %1773
  br label %1917

1917:                                             ; preds = %1916, %1334
  br label %1918

1918:                                             ; preds = %1917, %1331
  br label %1919

1919:                                             ; preds = %1918, %1886, %1395
  %1920 = load i32, i32* %60, align 4
  %1921 = add nsw i32 %1920, 1
  store i32 %1921, i32* %60, align 4
  br label %1316

1922:                                             ; preds = %1329
  %1923 = call %"struct.std::_Rb_tree_node_base"* @_ZNSt8multimapIlP7requestSt4lessIlESaISt4pairIKlS1_EEE5beginEv(%"class.std::multimap"* @tftpAge) #2
  %1924 = getelementptr inbounds %"struct.std::_Rb_tree_iterator", %"struct.std::_Rb_tree_iterator"* %72, i32 0, i32 0
  store %"struct.std::_Rb_tree_node_base"* %1923, %"struct.std::_Rb_tree_node_base"** %1924, align 8
  call void @_ZNSt17_Rb_tree_iteratorISt4pairIKlP7requestEEC2Ev(%"struct.std::_Rb_tree_iterator"* %73) #2
  %1925 = call i64 @time(i64* null) #2
  store i64 %1925, i64* %74, align 8
  br label %1926

1926:                                             ; preds = %2164, %1922
  %1927 = call %"struct.std::_Rb_tree_node_base"* @_ZNSt8multimapIlP7requestSt4lessIlESaISt4pairIKlS1_EEE3endEv(%"class.std::multimap"* @tftpAge) #2
  %1928 = getelementptr inbounds %"struct.std::_Rb_tree_iterator", %"struct.std::_Rb_tree_iterator"* %76, i32 0, i32 0
  store %"struct.std::_Rb_tree_node_base"* %1927, %"struct.std::_Rb_tree_node_base"** %1928, align 8
  %1929 = call zeroext i1 @_ZNKSt17_Rb_tree_iteratorISt4pairIKlP7requestEEneERKS5_(%"struct.std::_Rb_tree_iterator"* %72, %"struct.std::_Rb_tree_iterator"* dereferenceable(8) %76) #2
  br i1 %1929, label %1930, label %2165

1930:                                             ; preds = %1926
  %1931 = call %"struct.std::pair.14"* @_ZNKSt17_Rb_tree_iteratorISt4pairIKlP7requestEEptEv(%"struct.std::_Rb_tree_iterator"* %72) #2
  %1932 = getelementptr inbounds %"struct.std::pair.14", %"struct.std::pair.14"* %1931, i32 0, i32 1
  %1933 = load %struct.request*, %struct.request** %1932, align 8
  store %struct.request* %1933, %struct.request** %75, align 8
  %1934 = call %"struct.std::pair.14"* @_ZNKSt17_Rb_tree_iteratorISt4pairIKlP7requestEEptEv(%"struct.std::_Rb_tree_iterator"* %72) #2
  %1935 = getelementptr inbounds %"struct.std::pair.14", %"struct.std::pair.14"* %1934, i32 0, i32 0
  %1936 = load i64, i64* %1935, align 8
  %1937 = load i64, i64* %74, align 8
  %1938 = icmp sgt i64 %1936, %1937
  br i1 %1938, label %1939, label %1940

1939:                                             ; preds = %1930
  br label %2165

1940:                                             ; preds = %1930
  %1941 = call %"struct.std::pair.14"* @_ZNKSt17_Rb_tree_iteratorISt4pairIKlP7requestEEptEv(%"struct.std::_Rb_tree_iterator"* %72) #2
  %1942 = getelementptr inbounds %"struct.std::pair.14", %"struct.std::pair.14"* %1941, i32 0, i32 0
  %1943 = load i64, i64* %1942, align 8
  %1944 = load %struct.request*, %struct.request** %75, align 8
  %1945 = getelementptr inbounds %struct.request, %struct.request* %1944, i32 0, i32 4
  %1946 = load i64, i64* %1945, align 8
  %1947 = icmp slt i64 %1943, %1946
  br i1 %1947, label %1948, label %1969

1948:                                             ; preds = %1940
  %1949 = load %struct.request*, %struct.request** %75, align 8
  %1950 = getelementptr inbounds %struct.request, %struct.request* %1949, i32 0, i32 4
  %1951 = load i64, i64* %1950, align 8
  %1952 = load i64, i64* %74, align 8
  %1953 = icmp sgt i64 %1951, %1952
  br i1 %1953, label %1954, label %1969

1954:                                             ; preds = %1948
  %1955 = bitcast %"struct.std::_Rb_tree_iterator"* %73 to i8*
  %1956 = bitcast %"struct.std::_Rb_tree_iterator"* %72 to i8*
  call void @llvm.memcpy.p0i8.p0i8.i64(i8* align 8 %1955, i8* align 8 %1956, i64 8, i1 false)
  %1957 = call %"struct.std::_Rb_tree_node_base"* @_ZNSt17_Rb_tree_iteratorISt4pairIKlP7requestEEppEi(%"struct.std::_Rb_tree_iterator"* %72, i32 0) #2
  %1958 = getelementptr inbounds %"struct.std::_Rb_tree_iterator", %"struct.std::_Rb_tree_iterator"* %77, i32 0, i32 0
  store %"struct.std::_Rb_tree_node_base"* %1957, %"struct.std::_Rb_tree_node_base"** %1958, align 8
  %1959 = bitcast %"struct.std::_Rb_tree_iterator"* %78 to i8*
  %1960 = bitcast %"struct.std::_Rb_tree_iterator"* %73 to i8*
  call void @llvm.memcpy.p0i8.p0i8.i64(i8* align 8 %1959, i8* align 8 %1960, i64 8, i1 false)
  %1961 = getelementptr inbounds %"struct.std::_Rb_tree_iterator", %"struct.std::_Rb_tree_iterator"* %78, i32 0, i32 0
  %1962 = load %"struct.std::_Rb_tree_node_base"*, %"struct.std::_Rb_tree_node_base"** %1961, align 8
  %1963 = call %"struct.std::_Rb_tree_node_base"* @_ZNSt8multimapIlP7requestSt4lessIlESaISt4pairIKlS1_EEE5eraseB5cxx11ESt17_Rb_tree_iteratorIS6_E(%"class.std::multimap"* @tftpAge, %"struct.std::_Rb_tree_node_base"* %1962)
  %1964 = getelementptr inbounds %"struct.std::_Rb_tree_iterator", %"struct.std::_Rb_tree_iterator"* %79, i32 0, i32 0
  store %"struct.std::_Rb_tree_node_base"* %1963, %"struct.std::_Rb_tree_node_base"** %1964, align 8
  %1965 = load %struct.request*, %struct.request** %75, align 8
  %1966 = getelementptr inbounds %struct.request, %struct.request* %1965, i32 0, i32 4
  call void @_ZNSt4pairIlP7requestEC2IRlRS1_Lb1EEEOT_OT0_(%"struct.std::pair"* %80, i64* dereferenceable(8) %1966, %struct.request** dereferenceable(8) %75)
  %1967 = call %"struct.std::_Rb_tree_node_base"* @_ZNSt8multimapIlP7requestSt4lessIlESaISt4pairIKlS1_EEE6insertIS4_IlS1_EEENSt9enable_ifIXsr16is_constructibleIS6_T_EE5valueESt17_Rb_tree_iteratorIS6_EE4typeEOSC_(%"class.std::multimap"* @tftpAge, %"struct.std::pair"* dereferenceable(16) %80)
  %1968 = getelementptr inbounds %"struct.std::_Rb_tree_iterator", %"struct.std::_Rb_tree_iterator"* %81, i32 0, i32 0
  store %"struct.std::_Rb_tree_node_base"* %1967, %"struct.std::_Rb_tree_node_base"** %1968, align 8
  br label %2163

1969:                                             ; preds = %1948, %1940
  %1970 = load %struct.request*, %struct.request** %75, align 8
  %1971 = getelementptr inbounds %struct.request, %struct.request* %1970, i32 0, i32 4
  %1972 = load i64, i64* %1971, align 8
  %1973 = load i64, i64* %74, align 8
  %1974 = icmp sle i64 %1972, %1973
  br i1 %1974, label %1975, label %2077

1975:                                             ; preds = %1969
  %1976 = load %struct.request*, %struct.request** %75, align 8
  %1977 = getelementptr inbounds %struct.request, %struct.request* %1976, i32 0, i32 2
  %1978 = load i8, i8* %1977, align 1
  %1979 = zext i8 %1978 to i32
  %1980 = icmp sge i32 %1979, 3
  br i1 %1980, label %1981, label %2077

1981:                                             ; preds = %1975
  %1982 = load %struct.request*, %struct.request** %75, align 8
  %1983 = getelementptr inbounds %struct.request, %struct.request* %1982, i32 0, i32 2
  %1984 = load i8, i8* %1983, align 1
  %1985 = zext i8 %1984 to i32
  %1986 = icmp slt i32 %1985, 255
  br i1 %1986, label %1987, label %2048

1987:                                             ; preds = %1981
  %1988 = call zeroext i16 @htons(i16 zeroext 5) #18
  %1989 = load %struct.request*, %struct.request** %75, align 8
  %1990 = getelementptr inbounds %struct.request, %struct.request* %1989, i32 0, i32 21
  %1991 = bitcast %union.anon.9* %1990 to %struct.tftperror*
  %1992 = getelementptr inbounds %struct.tftperror, %struct.tftperror* %1991, i32 0, i32 0
  store i16 %1988, i16* %1992, align 8
  %1993 = call zeroext i16 @htons(i16 zeroext 0) #18
  %1994 = load %struct.request*, %struct.request** %75, align 8
  %1995 = getelementptr inbounds %struct.request, %struct.request* %1994, i32 0, i32 21
  %1996 = bitcast %union.anon.9* %1995 to %struct.tftperror*
  %1997 = getelementptr inbounds %struct.tftperror, %struct.tftperror* %1996, i32 0, i32 1
  store i16 %1993, i16* %1997, align 2
  %1998 = load %struct.request*, %struct.request** %75, align 8
  %1999 = getelementptr inbounds %struct.request, %struct.request* %1998, i32 0, i32 12
  %2000 = load i32, i32* %1999, align 4
  %2001 = icmp ne i32 %2000, 0
  br i1 %2001, label %2002, label %2014

2002:                                             ; preds = %1987
  %2003 = load %struct.request*, %struct.request** %75, align 8
  %2004 = getelementptr inbounds %struct.request, %struct.request* %2003, i32 0, i32 13
  %2005 = load i16, i16* %2004, align 8
  %2006 = icmp ne i16 %2005, 0
  br i1 %2006, label %2014, label %2007

2007:                                             ; preds = %2002
  %2008 = load %struct.request*, %struct.request** %75, align 8
  %2009 = getelementptr inbounds %struct.request, %struct.request* %2008, i32 0, i32 21
  %2010 = bitcast %union.anon.9* %2009 to %struct.tftperror*
  %2011 = getelementptr inbounds %struct.tftperror, %struct.tftperror* %2010, i32 0, i32 2
  %2012 = getelementptr inbounds [508 x i8], [508 x i8]* %2011, i32 0, i32 0
  %2013 = call i8* @strcpy(i8* %2012, i8* getelementptr inbounds ([52 x i8], [52 x i8]* @.str.14, i32 0, i32 0)) #2
  br label %2021

2014:                                             ; preds = %2002, %1987
  %2015 = load %struct.request*, %struct.request** %75, align 8
  %2016 = getelementptr inbounds %struct.request, %struct.request* %2015, i32 0, i32 21
  %2017 = bitcast %union.anon.9* %2016 to %struct.tftperror*
  %2018 = getelementptr inbounds %struct.tftperror, %struct.tftperror* %2017, i32 0, i32 2
  %2019 = getelementptr inbounds [508 x i8], [508 x i8]* %2018, i32 0, i32 0
  %2020 = call i8* @strcpy(i8* %2019, i8* getelementptr inbounds ([8 x i8], [8 x i8]* @.str.15, i32 0, i32 0)) #2
  br label %2021

2021:                                             ; preds = %2014, %2007
  %2022 = load %struct.request*, %struct.request** %75, align 8
  %2023 = getelementptr inbounds %struct.request, %struct.request* %2022, i32 0, i32 3
  %2024 = load i8, i8* %2023, align 2
  %2025 = zext i8 %2024 to i64
  %2026 = getelementptr inbounds [8 x %struct.tftpConnType], [8 x %struct.tftpConnType]* getelementptr inbounds (%struct.data1, %struct.data1* @network, i32 0, i32 0), i64 0, i64 %2025
  %2027 = getelementptr inbounds %struct.tftpConnType, %struct.tftpConnType* %2026, i32 0, i32 0
  %2028 = load i32, i32* %2027, align 4
  %2029 = load %struct.request*, %struct.request** %75, align 8
  %2030 = getelementptr inbounds %struct.request, %struct.request* %2029, i32 0, i32 21
  %2031 = bitcast %union.anon.9* %2030 to %struct.tftperror*
  %2032 = bitcast %struct.tftperror* %2031 to i8*
  %2033 = load %struct.request*, %struct.request** %75, align 8
  %2034 = getelementptr inbounds %struct.request, %struct.request* %2033, i32 0, i32 21
  %2035 = bitcast %union.anon.9* %2034 to %struct.tftperror*
  %2036 = getelementptr inbounds %struct.tftperror, %struct.tftperror* %2035, i32 0, i32 2
  %2037 = getelementptr inbounds [508 x i8], [508 x i8]* %2036, i32 0, i32 0
  %2038 = call i64 @strlen(i8* %2037) #16
  %2039 = add i64 %2038, 5
  %2040 = load %struct.request*, %struct.request** %75, align 8
  %2041 = getelementptr inbounds %struct.request, %struct.request* %2040, i32 0, i32 18
  %2042 = bitcast %struct.sockaddr_in* %2041 to %struct.sockaddr*
  %2043 = load %struct.request*, %struct.request** %75, align 8
  %2044 = getelementptr inbounds %struct.request, %struct.request* %2043, i32 0, i32 19
  %2045 = load i32, i32* %2044, align 8
  %2046 = call i64 @sendto(i32 %2028, i8* %2032, i64 %2039, i32 0, %struct.sockaddr* %2042, i32 %2045)
  %2047 = load %struct.request*, %struct.request** %75, align 8
  call void @_Z7logMessP7requesth(%struct.request* %2047, i8 zeroext 1)
  br label %2048

2048:                                             ; preds = %2021, %1981
  %2049 = bitcast %"struct.std::_Rb_tree_iterator"* %73 to i8*
  %2050 = bitcast %"struct.std::_Rb_tree_iterator"* %72 to i8*
  call void @llvm.memcpy.p0i8.p0i8.i64(i8* align 8 %2049, i8* align 8 %2050, i64 8, i1 false)
  %2051 = call %"struct.std::_Rb_tree_node_base"* @_ZNSt17_Rb_tree_iteratorISt4pairIKlP7requestEEppEi(%"struct.std::_Rb_tree_iterator"* %72, i32 0) #2
  %2052 = getelementptr inbounds %"struct.std::_Rb_tree_iterator", %"struct.std::_Rb_tree_iterator"* %82, i32 0, i32 0
  store %"struct.std::_Rb_tree_node_base"* %2051, %"struct.std::_Rb_tree_node_base"** %2052, align 8
  %2053 = bitcast %"struct.std::_Rb_tree_iterator"* %83 to i8*
  %2054 = bitcast %"struct.std::_Rb_tree_iterator"* %73 to i8*
  call void @llvm.memcpy.p0i8.p0i8.i64(i8* align 8 %2053, i8* align 8 %2054, i64 8, i1 false)
  %2055 = getelementptr inbounds %"struct.std::_Rb_tree_iterator", %"struct.std::_Rb_tree_iterator"* %83, i32 0, i32 0
  %2056 = load %"struct.std::_Rb_tree_node_base"*, %"struct.std::_Rb_tree_node_base"** %2055, align 8
  %2057 = call %"struct.std::_Rb_tree_node_base"* @_ZNSt8multimapIlP7requestSt4lessIlESaISt4pairIKlS1_EEE5eraseB5cxx11ESt17_Rb_tree_iteratorIS6_E(%"class.std::multimap"* @tftpAge, %"struct.std::_Rb_tree_node_base"* %2056)
  %2058 = getelementptr inbounds %"struct.std::_Rb_tree_iterator", %"struct.std::_Rb_tree_iterator"* %84, i32 0, i32 0
  store %"struct.std::_Rb_tree_node_base"* %2057, %"struct.std::_Rb_tree_node_base"** %2058, align 8
  %2059 = load %struct.request*, %struct.request** %75, align 8
  %2060 = getelementptr inbounds %struct.request, %struct.request* %2059, i32 0, i32 0
  %2061 = getelementptr inbounds [32 x i8], [32 x i8]* %2060, i32 0, i32 0
  call void @_ZNSaIcEC1Ev(%"class.std::allocator.10"* %86) #2
  invoke void @_ZNSt7__cxx1112basic_stringIcSt11char_traitsIcESaIcEEC1EPKcRKS3_(%"class.std::__cxx11::basic_string"* %85, i8* %2061, %"class.std::allocator.10"* dereferenceable(1) %86)
          to label %2062 unwind label %2068

2062:                                             ; preds = %2048
  %2063 = invoke i64 @_ZNSt3mapINSt7__cxx1112basic_stringIcSt11char_traitsIcESaIcEEEP7requestSt4lessIS5_ESaISt4pairIKS5_S7_EEE5eraseERSB_(%"class.std::map"* @_Z9tftpCacheB5cxx11, %"class.std::__cxx11::basic_string"* dereferenceable(32) %85)
          to label %2064 unwind label %2072

2064:                                             ; preds = %2062
  call void @_ZNSt7__cxx1112basic_stringIcSt11char_traitsIcESaIcEED1Ev(%"class.std::__cxx11::basic_string"* %85) #2
  call void @_ZNSaIcED1Ev(%"class.std::allocator.10"* %86) #2
  %2065 = load %struct.request*, %struct.request** %75, align 8
  call void @_Z8cleanReqP7request(%struct.request* %2065)
  %2066 = load %struct.request*, %struct.request** %75, align 8
  %2067 = bitcast %struct.request* %2066 to i8*
  call void @free(i8* %2067) #2
  br label %2162

2068:                                             ; preds = %2048
  %2069 = landingpad { i8*, i32 }
          cleanup
  %2070 = extractvalue { i8*, i32 } %2069, 0
  store i8* %2070, i8** %22, align 8
  %2071 = extractvalue { i8*, i32 } %2069, 1
  store i32 %2071, i32* %23, align 4
  br label %2076

2072:                                             ; preds = %2062
  %2073 = landingpad { i8*, i32 }
          cleanup
  %2074 = extractvalue { i8*, i32 } %2073, 0
  store i8* %2074, i8** %22, align 8
  %2075 = extractvalue { i8*, i32 } %2073, 1
  store i32 %2075, i32* %23, align 4
  call void @_ZNSt7__cxx1112basic_stringIcSt11char_traitsIcESaIcEED1Ev(%"class.std::__cxx11::basic_string"* %85) #2
  br label %2076

2076:                                             ; preds = %2072, %2068
  call void @_ZNSaIcED1Ev(%"class.std::allocator.10"* %86) #2
  br label %2182

2077:                                             ; preds = %1975, %1969
  %2078 = load %struct.request*, %struct.request** %75, align 8
  %2079 = getelementptr inbounds %struct.request, %struct.request* %2078, i32 0, i32 4
  %2080 = load i64, i64* %2079, align 8
  %2081 = load i64, i64* %74, align 8
  %2082 = icmp sle i64 %2080, %2081
  br i1 %2082, label %2083, label %2158

2083:                                             ; preds = %2077
  %2084 = load %struct.request*, %struct.request** %75, align 8
  %2085 = getelementptr inbounds %struct.request, %struct.request* %2084, i32 0, i32 21
  %2086 = bitcast %union.anon.9* %2085 to %struct.acknowledgement*
  %2087 = getelementptr inbounds %struct.acknowledgement, %struct.acknowledgement* %2086, i32 0, i32 0
  %2088 = load i16, i16* %2087, align 8
  %2089 = call zeroext i16 @ntohs(i16 zeroext %2088) #18
  %2090 = zext i16 %2089 to i32
  %2091 = icmp eq i32 %2090, 3
  br i1 %2091, label %2092, label %2112

2092:                                             ; preds = %2083
  %2093 = load %struct.request*, %struct.request** %75, align 8
  %2094 = call i32 @_Z11processSendP7request(%struct.request* %2093)
  %2095 = icmp ne i32 %2094, 0
  br i1 %2095, label %2096, label %2098

2096:                                             ; preds = %2092
  %2097 = load %struct.request*, %struct.request** %75, align 8
  call void @_Z8cleanReqP7request(%struct.request* %2097)
  br label %2111

2098:                                             ; preds = %2092
  %2099 = load %struct.request*, %struct.request** %75, align 8
  %2100 = getelementptr inbounds %struct.request, %struct.request* %2099, i32 0, i32 2
  %2101 = load i8, i8* %2100, align 1
  %2102 = add i8 %2101, 1
  store i8 %2102, i8* %2100, align 1
  %2103 = load i64, i64* %74, align 8
  %2104 = load %struct.request*, %struct.request** %75, align 8
  %2105 = getelementptr inbounds %struct.request, %struct.request* %2104, i32 0, i32 11
  %2106 = load i32, i32* %2105, align 8
  %2107 = zext i32 %2106 to i64
  %2108 = add nsw i64 %2103, %2107
  %2109 = load %struct.request*, %struct.request** %75, align 8
  %2110 = getelementptr inbounds %struct.request, %struct.request* %2109, i32 0, i32 4
  store i64 %2108, i64* %2110, align 8
  br label %2111

2111:                                             ; preds = %2098, %2096
  br label %2155

2112:                                             ; preds = %2083
  %2113 = call i32* @__errno_location() #18
  store i32 0, i32* %2113, align 4
  %2114 = load %struct.request*, %struct.request** %75, align 8
  %2115 = getelementptr inbounds %struct.request, %struct.request* %2114, i32 0, i32 3
  %2116 = load i8, i8* %2115, align 2
  %2117 = zext i8 %2116 to i64
  %2118 = getelementptr inbounds [8 x %struct.tftpConnType], [8 x %struct.tftpConnType]* getelementptr inbounds (%struct.data1, %struct.data1* @network, i32 0, i32 0), i64 0, i64 %2117
  %2119 = getelementptr inbounds %struct.tftpConnType, %struct.tftpConnType* %2118, i32 0, i32 0
  %2120 = load i32, i32* %2119, align 4
  %2121 = load %struct.request*, %struct.request** %75, align 8
  %2122 = getelementptr inbounds %struct.request, %struct.request* %2121, i32 0, i32 21
  %2123 = bitcast %union.anon.9* %2122 to %struct.acknowledgement*
  %2124 = bitcast %struct.acknowledgement* %2123 to i8*
  %2125 = load %struct.request*, %struct.request** %75, align 8
  %2126 = getelementptr inbounds %struct.request, %struct.request* %2125, i32 0, i32 17
  %2127 = load i32, i32* %2126, align 4
  %2128 = sext i32 %2127 to i64
  %2129 = load %struct.request*, %struct.request** %75, align 8
  %2130 = getelementptr inbounds %struct.request, %struct.request* %2129, i32 0, i32 18
  %2131 = bitcast %struct.sockaddr_in* %2130 to %struct.sockaddr*
  %2132 = load %struct.request*, %struct.request** %75, align 8
  %2133 = getelementptr inbounds %struct.request, %struct.request* %2132, i32 0, i32 19
  %2134 = load i32, i32* %2133, align 8
  %2135 = call i64 @sendto(i32 %2120, i8* %2124, i64 %2128, i32 0, %struct.sockaddr* %2131, i32 %2134)
  %2136 = call i32* @__errno_location() #18
  %2137 = load i32, i32* %2136, align 4
  %2138 = icmp ne i32 %2137, 0
  br i1 %2138, label %2139, label %2141

2139:                                             ; preds = %2112
  %2140 = load %struct.request*, %struct.request** %75, align 8
  call void @_Z8cleanReqP7request(%struct.request* %2140)
  br label %2154

2141:                                             ; preds = %2112
  %2142 = load %struct.request*, %struct.request** %75, align 8
  %2143 = getelementptr inbounds %struct.request, %struct.request* %2142, i32 0, i32 2
  %2144 = load i8, i8* %2143, align 1
  %2145 = add i8 %2144, 1
  store i8 %2145, i8* %2143, align 1
  %2146 = load i64, i64* %74, align 8
  %2147 = load %struct.request*, %struct.request** %75, align 8
  %2148 = getelementptr inbounds %struct.request, %struct.request* %2147, i32 0, i32 11
  %2149 = load i32, i32* %2148, align 8
  %2150 = zext i32 %2149 to i64
  %2151 = add nsw i64 %2146, %2150
  %2152 = load %struct.request*, %struct.request** %75, align 8
  %2153 = getelementptr inbounds %struct.request, %struct.request* %2152, i32 0, i32 4
  store i64 %2151, i64* %2153, align 8
  br label %2154

2154:                                             ; preds = %2141, %2139
  br label %2155

2155:                                             ; preds = %2154, %2111
  %2156 = call %"struct.std::_Rb_tree_node_base"* @_ZNSt17_Rb_tree_iteratorISt4pairIKlP7requestEEppEi(%"struct.std::_Rb_tree_iterator"* %72, i32 0) #2
  %2157 = getelementptr inbounds %"struct.std::_Rb_tree_iterator", %"struct.std::_Rb_tree_iterator"* %87, i32 0, i32 0
  store %"struct.std::_Rb_tree_node_base"* %2156, %"struct.std::_Rb_tree_node_base"** %2157, align 8
  br label %2161

2158:                                             ; preds = %2077
  %2159 = call %"struct.std::_Rb_tree_node_base"* @_ZNSt17_Rb_tree_iteratorISt4pairIKlP7requestEEppEi(%"struct.std::_Rb_tree_iterator"* %72, i32 0) #2
  %2160 = getelementptr inbounds %"struct.std::_Rb_tree_iterator", %"struct.std::_Rb_tree_iterator"* %88, i32 0, i32 0
  store %"struct.std::_Rb_tree_node_base"* %2159, %"struct.std::_Rb_tree_node_base"** %2160, align 8
  br label %2161

2161:                                             ; preds = %2158, %2155
  br label %2162

2162:                                             ; preds = %2161, %2064
  br label %2163

2163:                                             ; preds = %2162, %1954
  br label %2164

2164:                                             ; preds = %2163
  br label %1926

2165:                                             ; preds = %1939, %1926
  br label %2166

2166:                                             ; preds = %2165, %1263
  %2167 = load i8, i8* @kRunning, align 1
  %2168 = trunc i8 %2167 to i1
  br i1 %2168, label %1260, label %2169

2169:                                             ; preds = %2166
  %2170 = call i32 (i8*, i8*, ...) @sprintf(i8* getelementptr inbounds ([512 x i8], [512 x i8]* @logBuff, i32 0, i32 0), i8* getelementptr inbounds ([31 x i8], [31 x i8]* @.str.16, i32 0, i32 0)) #2
  call void @_Z7logMessPch(i8* getelementptr inbounds ([512 x i8], [512 x i8]* @logBuff, i32 0, i32 0), i8 zeroext 1)
  call void @_Z9closeConnv()
  %2171 = load i32, i32* getelementptr inbounds (%struct.data2, %struct.data2* @cfig, i32 0, i32 15), align 4
  %2172 = call i32 @close(i32 %2171)
  %2173 = call i32 (i8*, i8*, ...) @sprintf(i8* getelementptr inbounds ([512 x i8], [512 x i8]* @logBuff, i32 0, i32 0), i8* getelementptr inbounds ([22 x i8], [22 x i8]* @.str.17, i32 0, i32 0)) #2
  call void @_Z7logMessPch(i8* getelementptr inbounds ([512 x i8], [512 x i8]* @logBuff, i32 0, i32 0), i8 zeroext 1)
  %2174 = load %struct._IO_FILE*, %struct._IO_FILE** getelementptr inbounds (%struct.data2, %struct.data2* @cfig, i32 0, i32 2), align 8
  %2175 = icmp ne %struct._IO_FILE* %2174, null
  br i1 %2175, label %2176, label %2179

2176:                                             ; preds = %2169
  %2177 = load %struct._IO_FILE*, %struct._IO_FILE** getelementptr inbounds (%struct.data2, %struct.data2* @cfig, i32 0, i32 2), align 8
  %2178 = call i32 @fclose(%struct._IO_FILE* %2177)
  br label %2179

2179:                                             ; preds = %2176, %2169
  call void @exit(i32 0) #17
  unreachable

2180:                                             ; No predecessors!
  %2181 = load i32, i32* %3, align 4
  ret i32 %2181

2182:                                             ; preds = %2076, %1911, %1443, %1434, %1091, %926, %458, %449
  %2183 = load i8*, i8** %22, align 8
  %2184 = load i32, i32* %23, align 4
  %2185 = insertvalue { i8*, i32 } undef, i8* %2183, 0
  %2186 = insertvalue { i8*, i32 } %2185, i32 %2184, 1
  resume { i8*, i32 } %2186
}

; Function Attrs: nounwind
declare void (i32)* @signal(i32, void (i32)*) #4

; Function Attrs: noinline nounwind optnone uwtable
define void @_Z9catch_inti(i32 %0) #1 {
  %2 = alloca i32, align 4
  store i32 %0, i32* %2, align 4
  %3 = load i32, i32* getelementptr inbounds (%struct.data2, %struct.data2* @cfig, i32 0, i32 9), align 4
  %4 = call i32 @getpid() #2
  %5 = icmp eq i32 %3, %4
  br i1 %5, label %6, label %7

6:                                                ; preds = %1
  store i8 0, i8* @kRunning, align 1
  br label %7

7:                                                ; preds = %6, %1
  ret void
}

; Function Attrs: nounwind readonly
declare i32 @strcasecmp(i8*, i8*) #5

; Function Attrs: nounwind readonly
declare i32 @strcmp(i8*, i8*) #5

; Function Attrs: noinline nounwind optnone uwtable
define i8* @_Z6myTrimPcS_(i8* %0, i8* %1) #1 {
  %3 = alloca i8*, align 8
  %4 = alloca i8*, align 8
  %5 = alloca i32, align 4
  store i8* %0, i8** %3, align 8
  store i8* %1, i8** %4, align 8
  br label %6

6:                                                ; preds = %17, %2
  %7 = load i8*, i8** %4, align 8
  %8 = load i8, i8* %7, align 1
  %9 = icmp ne i8 %8, 0
  br i1 %9, label %10, label %15

10:                                               ; preds = %6
  %11 = load i8*, i8** %4, align 8
  %12 = load i8, i8* %11, align 1
  %13 = sext i8 %12 to i32
  %14 = icmp sle i32 %13, 32
  br label %15

15:                                               ; preds = %10, %6
  %16 = phi i1 [ false, %6 ], [ %14, %10 ]
  br i1 %16, label %17, label %20

17:                                               ; preds = %15
  %18 = load i8*, i8** %4, align 8
  %19 = getelementptr inbounds i8, i8* %18, i32 1
  store i8* %19, i8** %4, align 8
  br label %6

20:                                               ; preds = %15
  store i32 0, i32* %5, align 4
  br label %21

21:                                               ; preds = %43, %20
  %22 = load i32, i32* %5, align 4
  %23 = icmp slt i32 %22, 511
  br i1 %23, label %24, label %31

24:                                               ; preds = %21
  %25 = load i8*, i8** %4, align 8
  %26 = load i32, i32* %5, align 4
  %27 = sext i32 %26 to i64
  %28 = getelementptr inbounds i8, i8* %25, i64 %27
  %29 = load i8, i8* %28, align 1
  %30 = icmp ne i8 %29, 0
  br label %31

31:                                               ; preds = %24, %21
  %32 = phi i1 [ false, %21 ], [ %30, %24 ]
  br i1 %32, label %33, label %46

33:                                               ; preds = %31
  %34 = load i8*, i8** %4, align 8
  %35 = load i32, i32* %5, align 4
  %36 = sext i32 %35 to i64
  %37 = getelementptr inbounds i8, i8* %34, i64 %36
  %38 = load i8, i8* %37, align 1
  %39 = load i8*, i8** %3, align 8
  %40 = load i32, i32* %5, align 4
  %41 = sext i32 %40 to i64
  %42 = getelementptr inbounds i8, i8* %39, i64 %41
  store i8 %38, i8* %42, align 1
  br label %43

43:                                               ; preds = %33
  %44 = load i32, i32* %5, align 4
  %45 = add nsw i32 %44, 1
  store i32 %45, i32* %5, align 4
  br label %21

46:                                               ; preds = %31
  %47 = load i8*, i8** %4, align 8
  %48 = load i32, i32* %5, align 4
  %49 = sext i32 %48 to i64
  %50 = getelementptr inbounds i8, i8* %47, i64 %49
  %51 = load i8, i8* %50, align 1
  %52 = load i8*, i8** %3, align 8
  %53 = load i32, i32* %5, align 4
  %54 = sext i32 %53 to i64
  %55 = getelementptr inbounds i8, i8* %52, i64 %54
  store i8 %51, i8* %55, align 1
  %56 = load i32, i32* %5, align 4
  %57 = add nsw i32 %56, -1
  store i32 %57, i32* %5, align 4
  br label %58

58:                                               ; preds = %76, %46
  %59 = load i32, i32* %5, align 4
  %60 = icmp sge i32 %59, 0
  br i1 %60, label %61, label %69

61:                                               ; preds = %58
  %62 = load i8*, i8** %3, align 8
  %63 = load i32, i32* %5, align 4
  %64 = sext i32 %63 to i64
  %65 = getelementptr inbounds i8, i8* %62, i64 %64
  %66 = load i8, i8* %65, align 1
  %67 = sext i8 %66 to i32
  %68 = icmp sle i32 %67, 32
  br label %69

69:                                               ; preds = %61, %58
  %70 = phi i1 [ false, %58 ], [ %68, %61 ]
  br i1 %70, label %71, label %79

71:                                               ; preds = %69
  %72 = load i8*, i8** %3, align 8
  %73 = load i32, i32* %5, align 4
  %74 = sext i32 %73 to i64
  %75 = getelementptr inbounds i8, i8* %72, i64 %74
  store i8 0, i8* %75, align 1
  br label %76

76:                                               ; preds = %71
  %77 = load i32, i32* %5, align 4
  %78 = add nsw i32 %77, -1
  store i32 %78, i32* %5, align 4
  br label %58

79:                                               ; preds = %69
  %80 = load i8*, i8** %3, align 8
  ret i8* %80
}

; Function Attrs: nounwind readonly
declare i32 @strncasecmp(i8*, i8*, i64) #5

; Function Attrs: nounwind
declare i32 @sprintf(i8*, i8*, ...) #4

; Function Attrs: nounwind
declare i8* @strcpy(i8*, i8*) #4

declare i32 @printf(i8*, ...) #6

; Function Attrs: noreturn nounwind
declare void @exit(i32) #7

; Function Attrs: nounwind
declare i32 @pthread_attr_init(%union.pthread_attr_t*) #4

; Function Attrs: nounwind
declare i32 @pthread_attr_setdetachstate(%union.pthread_attr_t*, i32) #4

; Function Attrs: nounwind
declare i32 @pthread_create(i64*, %union.pthread_attr_t*, i8* (i8*)*, i8*) #4

; Function Attrs: noinline optnone uwtable
define i8* @_Z4initPv(i8* %0) #8 {
  %2 = alloca i8*, align 8
  %3 = alloca i8*, align 8
  %4 = alloca [512 x i8], align 16
  %5 = alloca [512 x i8], align 16
  %6 = alloca [512 x i8], align 16
  %7 = alloca %struct._IO_FILE*, align 8
  %8 = alloca i64, align 8
  %9 = alloca %struct.tm*, align 8
  %10 = alloca i32, align 4
  %11 = alloca %struct.passwd*, align 8
  %12 = alloca i32, align 4
  %13 = alloca i32, align 4
  %14 = alloca i32, align 4
  %15 = alloca i32, align 4
  %16 = alloca %struct.passwd*, align 8
  %17 = alloca i32, align 4
  %18 = alloca [128 x i8], align 16
  %19 = alloca i16, align 2
  %20 = alloca i8, align 1
  %21 = alloca i8, align 1
  %22 = alloca i16, align 2
  %23 = alloca i32, align 4
  %24 = alloca i8, align 1
  %25 = alloca i8, align 1
  %26 = alloca i32, align 4
  %27 = alloca i32, align 4
  %28 = alloca i32, align 4
  %29 = alloca i32, align 4
  store i8* %0, i8** %3, align 8
  call void @llvm.memset.p0i8.i64(i8* align 8 bitcast (%struct.data2* @cfig to i8*), i8 0, i64 3352, i1 false)
  %30 = call i32 @getpid() #2
  store i32 %30, i32* getelementptr inbounds (%struct.data2, %struct.data2* @cfig, i32 0, i32 9), align 4
  store %struct._IO_FILE* null, %struct._IO_FILE** %7, align 8
  %31 = load i8, i8* @verbatim, align 1
  %32 = trunc i8 %31 to i1
  br i1 %32, label %33, label %35

33:                                               ; preds = %1
  store i8 2, i8* getelementptr inbounds (%struct.data2, %struct.data2* @cfig, i32 0, i32 10), align 8
  %34 = call i32 (i8*, ...) @printf(i8* getelementptr inbounds ([5 x i8], [5 x i8]* @.str.51, i32 0, i32 0), i8* getelementptr inbounds ([52 x i8], [52 x i8]* @sVersion, i32 0, i32 0))
  br label %67

35:                                               ; preds = %1
  %36 = call %struct._IO_FILE* @_Z11openSectionPKchPc(i8* getelementptr inbounds ([8 x i8], [8 x i8]* @.str.52, i32 0, i32 0), i8 zeroext 1, i8* getelementptr inbounds ([256 x i8], [256 x i8]* @iniFile, i32 0, i32 0))
  store %struct._IO_FILE* %36, %struct._IO_FILE** %7, align 8
  %37 = icmp ne %struct._IO_FILE* %36, null
  br i1 %37, label %38, label %66

38:                                               ; preds = %35
  store i8 1, i8* getelementptr inbounds (%struct.data2, %struct.data2* @cfig, i32 0, i32 10), align 8
  store i8 0, i8* getelementptr inbounds ([256 x i8], [256 x i8]* @tempbuff, i64 0, i64 0), align 16
  br label %39

39:                                               ; preds = %64, %38
  %40 = getelementptr inbounds [512 x i8], [512 x i8]* %4, i32 0, i32 0
  %41 = load %struct._IO_FILE*, %struct._IO_FILE** %7, align 8
  %42 = call i8* @_Z11readSectionPcP8_IO_FILE(i8* %40, %struct._IO_FILE* %41)
  %43 = icmp ne i8* %42, null
  br i1 %43, label %44, label %65

44:                                               ; preds = %39
  %45 = getelementptr inbounds [512 x i8], [512 x i8]* %4, i32 0, i32 0
  %46 = call i32 @strcasecmp(i8* %45, i8* getelementptr inbounds ([5 x i8], [5 x i8]* @.str.53, i32 0, i32 0)) #16
  %47 = icmp ne i32 %46, 0
  br i1 %47, label %49, label %48

48:                                               ; preds = %44
  store i8 0, i8* getelementptr inbounds (%struct.data2, %struct.data2* @cfig, i32 0, i32 10), align 8
  br label %64

49:                                               ; preds = %44
  %50 = getelementptr inbounds [512 x i8], [512 x i8]* %4, i32 0, i32 0
  %51 = call i32 @strcasecmp(i8* %50, i8* getelementptr inbounds ([7 x i8], [7 x i8]* @.str.54, i32 0, i32 0)) #16
  %52 = icmp ne i32 %51, 0
  br i1 %52, label %54, label %53

53:                                               ; preds = %49
  store i8 1, i8* getelementptr inbounds (%struct.data2, %struct.data2* @cfig, i32 0, i32 10), align 8
  br label %63

54:                                               ; preds = %49
  %55 = getelementptr inbounds [512 x i8], [512 x i8]* %4, i32 0, i32 0
  %56 = call i32 @strcasecmp(i8* %55, i8* getelementptr inbounds ([4 x i8], [4 x i8]* @.str.55, i32 0, i32 0)) #16
  %57 = icmp ne i32 %56, 0
  br i1 %57, label %59, label %58

58:                                               ; preds = %54
  store i8 2, i8* getelementptr inbounds (%struct.data2, %struct.data2* @cfig, i32 0, i32 10), align 8
  br label %62

59:                                               ; preds = %54
  %60 = getelementptr inbounds [512 x i8], [512 x i8]* %4, i32 0, i32 0
  %61 = call i32 (i8*, i8*, ...) @sprintf(i8* getelementptr inbounds ([256 x i8], [256 x i8]* @tempbuff, i32 0, i32 0), i8* getelementptr inbounds ([40 x i8], [40 x i8]* @.str.56, i32 0, i32 0), i8* %60) #2
  br label %62

62:                                               ; preds = %59, %58
  br label %63

63:                                               ; preds = %62, %53
  br label %64

64:                                               ; preds = %63, %48
  br label %39

65:                                               ; preds = %39
  br label %66

66:                                               ; preds = %65, %35
  br label %67

67:                                               ; preds = %66, %33
  %68 = load i8, i8* @verbatim, align 1
  %69 = trunc i8 %68 to i1
  br i1 %69, label %95, label %70

70:                                               ; preds = %67
  %71 = load i8, i8* getelementptr inbounds (%struct.data2, %struct.data2* @cfig, i32 0, i32 10), align 8
  %72 = icmp ne i8 %71, 0
  br i1 %72, label %73, label %95

73:                                               ; preds = %70
  %74 = load i8, i8* getelementptr inbounds ([256 x i8], [256 x i8]* @logFile, i64 0, i64 0), align 16
  %75 = icmp ne i8 %74, 0
  br i1 %75, label %76, label %95

76:                                               ; preds = %73
  %77 = call i64 @time(i64* null) #2
  store i64 %77, i64* %8, align 8
  %78 = call %struct.tm* @localtime(i64* %8) #2
  store %struct.tm* %78, %struct.tm** %9, align 8
  %79 = load %struct.tm*, %struct.tm** %9, align 8
  %80 = getelementptr inbounds %struct.tm, %struct.tm* %79, i32 0, i32 7
  %81 = load i32, i32* %80, align 4
  %82 = trunc i32 %81 to i16
  store i16 %82, i16* @loggingDay, align 2
  %83 = load %struct.tm*, %struct.tm** %9, align 8
  %84 = call i64 @strftime(i8* getelementptr inbounds ([256 x i8], [256 x i8]* @extbuff, i32 0, i32 0), i64 256, i8* getelementptr inbounds ([256 x i8], [256 x i8]* @logFile, i32 0, i32 0), %struct.tm* %83) #2
  %85 = call %struct._IO_FILE* @fopen(i8* getelementptr inbounds ([256 x i8], [256 x i8]* @extbuff, i32 0, i32 0), i8* getelementptr inbounds ([3 x i8], [3 x i8]* @.str.57, i32 0, i32 0))
  store %struct._IO_FILE* %85, %struct._IO_FILE** getelementptr inbounds (%struct.data2, %struct.data2* @cfig, i32 0, i32 2), align 8
  %86 = load %struct._IO_FILE*, %struct._IO_FILE** getelementptr inbounds (%struct.data2, %struct.data2* @cfig, i32 0, i32 2), align 8
  %87 = icmp ne %struct._IO_FILE* %86, null
  br i1 %87, label %88, label %94

88:                                               ; preds = %76
  %89 = call i32 (i8*, i8*, ...) @sprintf(i8* getelementptr inbounds ([512 x i8], [512 x i8]* @logBuff, i32 0, i32 0), i8* getelementptr inbounds ([14 x i8], [14 x i8]* @.str.58, i32 0, i32 0), i8* getelementptr inbounds ([52 x i8], [52 x i8]* @sVersion, i32 0, i32 0)) #2
  call void @_Z7logMessPch(i8* getelementptr inbounds ([512 x i8], [512 x i8]* @logBuff, i32 0, i32 0), i8 zeroext 1)
  %90 = load i8, i8* getelementptr inbounds ([256 x i8], [256 x i8]* @tempbuff, i64 0, i64 0), align 16
  %91 = icmp ne i8 %90, 0
  br i1 %91, label %92, label %93

92:                                               ; preds = %88
  call void @_Z7logMessPch(i8* getelementptr inbounds ([256 x i8], [256 x i8]* @tempbuff, i32 0, i32 0), i8 zeroext 0)
  br label %93

93:                                               ; preds = %92, %88
  br label %94

94:                                               ; preds = %93, %76
  br label %95

95:                                               ; preds = %94, %73, %70, %67
  %96 = call %struct._IO_FILE* @fopen(i8* getelementptr inbounds ([256 x i8], [256 x i8]* @iniFile, i32 0, i32 0), i8* getelementptr inbounds ([3 x i8], [3 x i8]* @.str.30, i32 0, i32 0))
  store %struct._IO_FILE* %96, %struct._IO_FILE** %7, align 8
  %97 = icmp ne %struct._IO_FILE* %96, null
  br i1 %97, label %98, label %101

98:                                               ; preds = %95
  %99 = load %struct._IO_FILE*, %struct._IO_FILE** %7, align 8
  %100 = call i32 @fclose(%struct._IO_FILE* %99)
  br label %103

101:                                              ; preds = %95
  %102 = call i32 (i8*, i8*, ...) @sprintf(i8* getelementptr inbounds ([512 x i8], [512 x i8]* @logBuff, i32 0, i32 0), i8* getelementptr inbounds ([50 x i8], [50 x i8]* @.str.59, i32 0, i32 0), i8* getelementptr inbounds ([256 x i8], [256 x i8]* @iniFile, i32 0, i32 0)) #2
  call void @_Z7logMessPch(i8* getelementptr inbounds ([512 x i8], [512 x i8]* @logBuff, i32 0, i32 0), i8 zeroext 1)
  br label %103

103:                                              ; preds = %101, %98
  %104 = call %struct._IO_FILE* @_Z11openSectionPKchPc(i8* getelementptr inbounds ([5 x i8], [5 x i8]* @.str.60, i32 0, i32 0), i8 zeroext 1, i8* getelementptr inbounds ([256 x i8], [256 x i8]* @iniFile, i32 0, i32 0))
  store %struct._IO_FILE* %104, %struct._IO_FILE** %7, align 8
  %105 = icmp ne %struct._IO_FILE* %104, null
  br i1 %105, label %106, label %293

106:                                              ; preds = %103
  br label %107

107:                                              ; preds = %291, %106
  %108 = getelementptr inbounds [512 x i8], [512 x i8]* %4, i32 0, i32 0
  %109 = load %struct._IO_FILE*, %struct._IO_FILE** %7, align 8
  %110 = call i8* @_Z11readSectionPcP8_IO_FILE(i8* %108, %struct._IO_FILE* %109)
  %111 = icmp ne i8* %110, null
  br i1 %111, label %112, label %292

112:                                              ; preds = %107
  %113 = getelementptr inbounds [512 x i8], [512 x i8]* %5, i32 0, i32 0
  %114 = getelementptr inbounds [512 x i8], [512 x i8]* %6, i32 0, i32 0
  %115 = getelementptr inbounds [512 x i8], [512 x i8]* %4, i32 0, i32 0
  call void @_Z7mySplitPcS_S_c(i8* %113, i8* %114, i8* %115, i8 signext 61)
  %116 = getelementptr inbounds [512 x i8], [512 x i8]* %6, i32 0, i32 0
  %117 = call i64 @strlen(i8* %116) #16
  %118 = icmp ne i64 %117, 0
  br i1 %118, label %119, label %252

119:                                              ; preds = %112
  %120 = load i8, i8* getelementptr inbounds (%struct.data2, %struct.data2* @cfig, i32 0, i32 1, i64 0, i32 0, i64 0), align 8
  %121 = icmp ne i8 %120, 0
  br i1 %121, label %128, label %122

122:                                              ; preds = %119
  %123 = load i8, i8* getelementptr inbounds (%struct.data2, %struct.data2* @cfig, i32 0, i32 1, i64 0, i32 1, i64 0), align 8
  %124 = icmp ne i8 %123, 0
  br i1 %124, label %125, label %128

125:                                              ; preds = %122
  %126 = getelementptr inbounds [512 x i8], [512 x i8]* %4, i32 0, i32 0
  %127 = call i32 (i8*, i8*, ...) @sprintf(i8* getelementptr inbounds ([512 x i8], [512 x i8]* @logBuff, i32 0, i32 0), i8* getelementptr inbounds ([60 x i8], [60 x i8]* @.str.61, i32 0, i32 0), i8* %126) #2
  call void @_Z7logMessPch(i8* getelementptr inbounds ([512 x i8], [512 x i8]* @logBuff, i32 0, i32 0), i8 zeroext 1)
  br label %251

128:                                              ; preds = %122, %119
  %129 = getelementptr inbounds [512 x i8], [512 x i8]* %5, i32 0, i32 0
  %130 = load i8, i8* @notFileSep, align 1
  %131 = sext i8 %130 to i32
  %132 = call i8* @strchr(i8* %129, i32 %131) #16
  %133 = icmp ne i8* %132, null
  br i1 %133, label %152, label %134

134:                                              ; preds = %128
  %135 = getelementptr inbounds [512 x i8], [512 x i8]* %5, i32 0, i32 0
  %136 = load i8, i8* @fileSep, align 1
  %137 = sext i8 %136 to i32
  %138 = call i8* @strchr(i8* %135, i32 %137) #16
  %139 = icmp ne i8* %138, null
  br i1 %139, label %152, label %140

140:                                              ; preds = %134
  %141 = getelementptr inbounds [512 x i8], [512 x i8]* %5, i32 0, i32 0
  %142 = call i8* @strchr(i8* %141, i32 62) #16
  %143 = icmp ne i8* %142, null
  br i1 %143, label %152, label %144

144:                                              ; preds = %140
  %145 = getelementptr inbounds [512 x i8], [512 x i8]* %5, i32 0, i32 0
  %146 = call i8* @strchr(i8* %145, i32 60) #16
  %147 = icmp ne i8* %146, null
  br i1 %147, label %152, label %148

148:                                              ; preds = %144
  %149 = getelementptr inbounds [512 x i8], [512 x i8]* %5, i32 0, i32 0
  %150 = call i8* @strchr(i8* %149, i32 46) #16
  %151 = icmp ne i8* %150, null
  br i1 %151, label %152, label %155

152:                                              ; preds = %148, %144, %140, %134, %128
  %153 = getelementptr inbounds [512 x i8], [512 x i8]* %5, i32 0, i32 0
  %154 = call i32 (i8*, i8*, ...) @sprintf(i8* getelementptr inbounds ([512 x i8], [512 x i8]* @logBuff, i32 0, i32 0), i8* getelementptr inbounds ([57 x i8], [57 x i8]* @.str.62, i32 0, i32 0), i8* %153) #2
  call void @_Z7logMessPch(i8* getelementptr inbounds ([512 x i8], [512 x i8]* @logBuff, i32 0, i32 0), i8 zeroext 1)
  br label %250

155:                                              ; preds = %148
  %156 = getelementptr inbounds [512 x i8], [512 x i8]* %5, i64 0, i64 0
  %157 = load i8, i8* %156, align 16
  %158 = icmp ne i8 %157, 0
  br i1 %158, label %159, label %246

159:                                              ; preds = %155
  %160 = getelementptr inbounds [512 x i8], [512 x i8]* %5, i32 0, i32 0
  %161 = call i64 @strlen(i8* %160) #16
  %162 = icmp ult i64 %161, 64
  br i1 %162, label %163, label %246

163:                                              ; preds = %159
  %164 = getelementptr inbounds [512 x i8], [512 x i8]* %6, i64 0, i64 0
  %165 = load i8, i8* %164, align 16
  %166 = icmp ne i8 %165, 0
  br i1 %166, label %167, label %246

167:                                              ; preds = %163
  store i32 0, i32* %10, align 4
  br label %168

168:                                              ; preds = %242, %167
  %169 = load i32, i32* %10, align 4
  %170 = icmp slt i32 %169, 8
  br i1 %170, label %171, label %245

171:                                              ; preds = %168
  %172 = load i32, i32* %10, align 4
  %173 = sext i32 %172 to i64
  %174 = getelementptr inbounds [8 x %struct.home], [8 x %struct.home]* getelementptr inbounds (%struct.data2, %struct.data2* @cfig, i32 0, i32 1), i64 0, i64 %173
  %175 = getelementptr inbounds %struct.home, %struct.home* %174, i32 0, i32 0
  %176 = getelementptr inbounds [64 x i8], [64 x i8]* %175, i64 0, i64 0
  %177 = load i8, i8* %176, align 8
  %178 = icmp ne i8 %177, 0
  br i1 %178, label %179, label %191

179:                                              ; preds = %171
  %180 = getelementptr inbounds [512 x i8], [512 x i8]* %5, i32 0, i32 0
  %181 = load i32, i32* %10, align 4
  %182 = sext i32 %181 to i64
  %183 = getelementptr inbounds [8 x %struct.home], [8 x %struct.home]* getelementptr inbounds (%struct.data2, %struct.data2* @cfig, i32 0, i32 1), i64 0, i64 %182
  %184 = getelementptr inbounds %struct.home, %struct.home* %183, i32 0, i32 0
  %185 = getelementptr inbounds [64 x i8], [64 x i8]* %184, i32 0, i32 0
  %186 = call i32 @strcasecmp(i8* %180, i8* %185) #16
  %187 = icmp ne i32 %186, 0
  br i1 %187, label %191, label %188

188:                                              ; preds = %179
  %189 = getelementptr inbounds [512 x i8], [512 x i8]* %4, i32 0, i32 0
  %190 = call i32 (i8*, i8*, ...) @sprintf(i8* getelementptr inbounds ([512 x i8], [512 x i8]* @logBuff, i32 0, i32 0), i8* getelementptr inbounds ([44 x i8], [44 x i8]* @.str.63, i32 0, i32 0), i8* %189) #2
  call void @_Z7logMessPch(i8* getelementptr inbounds ([512 x i8], [512 x i8]* @logBuff, i32 0, i32 0), i8 zeroext 1)
  br label %245

191:                                              ; preds = %179, %171
  %192 = load i32, i32* %10, align 4
  %193 = sext i32 %192 to i64
  %194 = getelementptr inbounds [8 x %struct.home], [8 x %struct.home]* getelementptr inbounds (%struct.data2, %struct.data2* @cfig, i32 0, i32 1), i64 0, i64 %193
  %195 = getelementptr inbounds %struct.home, %struct.home* %194, i32 0, i32 0
  %196 = getelementptr inbounds [64 x i8], [64 x i8]* %195, i64 0, i64 0
  %197 = load i8, i8* %196, align 8
  %198 = icmp ne i8 %197, 0
  br i1 %198, label %240, label %199

199:                                              ; preds = %191
  %200 = load i32, i32* %10, align 4
  %201 = sext i32 %200 to i64
  %202 = getelementptr inbounds [8 x %struct.home], [8 x %struct.home]* getelementptr inbounds (%struct.data2, %struct.data2* @cfig, i32 0, i32 1), i64 0, i64 %201
  %203 = getelementptr inbounds %struct.home, %struct.home* %202, i32 0, i32 0
  %204 = getelementptr inbounds [64 x i8], [64 x i8]* %203, i32 0, i32 0
  %205 = getelementptr inbounds [512 x i8], [512 x i8]* %5, i32 0, i32 0
  %206 = call i8* @strcpy(i8* %204, i8* %205) #2
  %207 = load i32, i32* %10, align 4
  %208 = sext i32 %207 to i64
  %209 = getelementptr inbounds [8 x %struct.home], [8 x %struct.home]* getelementptr inbounds (%struct.data2, %struct.data2* @cfig, i32 0, i32 1), i64 0, i64 %208
  %210 = getelementptr inbounds %struct.home, %struct.home* %209, i32 0, i32 1
  %211 = getelementptr inbounds [256 x i8], [256 x i8]* %210, i32 0, i32 0
  %212 = getelementptr inbounds [512 x i8], [512 x i8]* %6, i32 0, i32 0
  %213 = call i8* @strcpy(i8* %211, i8* %212) #2
  %214 = load i32, i32* %10, align 4
  %215 = sext i32 %214 to i64
  %216 = getelementptr inbounds [8 x %struct.home], [8 x %struct.home]* getelementptr inbounds (%struct.data2, %struct.data2* @cfig, i32 0, i32 1), i64 0, i64 %215
  %217 = getelementptr inbounds %struct.home, %struct.home* %216, i32 0, i32 1
  %218 = load i32, i32* %10, align 4
  %219 = sext i32 %218 to i64
  %220 = getelementptr inbounds [8 x %struct.home], [8 x %struct.home]* getelementptr inbounds (%struct.data2, %struct.data2* @cfig, i32 0, i32 1), i64 0, i64 %219
  %221 = getelementptr inbounds %struct.home, %struct.home* %220, i32 0, i32 1
  %222 = getelementptr inbounds [256 x i8], [256 x i8]* %221, i32 0, i32 0
  %223 = call i64 @strlen(i8* %222) #16
  %224 = sub i64 %223, 1
  %225 = getelementptr inbounds [256 x i8], [256 x i8]* %217, i64 0, i64 %224
  %226 = load i8, i8* %225, align 1
  %227 = sext i8 %226 to i32
  %228 = load i8, i8* @fileSep, align 1
  %229 = sext i8 %228 to i32
  %230 = icmp ne i32 %227, %229
  br i1 %230, label %231, label %239

231:                                              ; preds = %199
  %232 = load i8, i8* @fileSep, align 1
  store i8 %232, i8* getelementptr inbounds ([256 x i8], [256 x i8]* @tempbuff, i64 0, i64 0), align 16
  store i8 0, i8* getelementptr inbounds ([256 x i8], [256 x i8]* @tempbuff, i64 0, i64 1), align 1
  %233 = load i32, i32* %10, align 4
  %234 = sext i32 %233 to i64
  %235 = getelementptr inbounds [8 x %struct.home], [8 x %struct.home]* getelementptr inbounds (%struct.data2, %struct.data2* @cfig, i32 0, i32 1), i64 0, i64 %234
  %236 = getelementptr inbounds %struct.home, %struct.home* %235, i32 0, i32 1
  %237 = getelementptr inbounds [256 x i8], [256 x i8]* %236, i32 0, i32 0
  %238 = call i8* @strcat(i8* %237, i8* getelementptr inbounds ([256 x i8], [256 x i8]* @tempbuff, i32 0, i32 0)) #2
  br label %239

239:                                              ; preds = %231, %199
  br label %245

240:                                              ; preds = %191
  br label %241

241:                                              ; preds = %240
  br label %242

242:                                              ; preds = %241
  %243 = load i32, i32* %10, align 4
  %244 = add nsw i32 %243, 1
  store i32 %244, i32* %10, align 4
  br label %168

245:                                              ; preds = %239, %188, %168
  br label %249

246:                                              ; preds = %163, %159, %155
  %247 = getelementptr inbounds [512 x i8], [512 x i8]* %5, i32 0, i32 0
  %248 = call i32 (i8*, i8*, ...) @sprintf(i8* getelementptr inbounds ([512 x i8], [512 x i8]* @logBuff, i32 0, i32 0), i8* getelementptr inbounds ([40 x i8], [40 x i8]* @.str.64, i32 0, i32 0), i8* %247) #2
  call void @_Z7logMessPch(i8* getelementptr inbounds ([512 x i8], [512 x i8]* @logBuff, i32 0, i32 0), i8 zeroext 1)
  br label %249

249:                                              ; preds = %246, %245
  br label %250

250:                                              ; preds = %249, %152
  br label %251

251:                                              ; preds = %250, %125
  br label %291

252:                                              ; preds = %112
  %253 = load i8, i8* getelementptr inbounds (%struct.data2, %struct.data2* @cfig, i32 0, i32 1, i64 0, i32 0, i64 0), align 8
  %254 = icmp ne i8 %253, 0
  br i1 %254, label %273, label %255

255:                                              ; preds = %252
  %256 = load i8, i8* getelementptr inbounds (%struct.data2, %struct.data2* @cfig, i32 0, i32 1, i64 0, i32 1, i64 0), align 8
  %257 = icmp ne i8 %256, 0
  br i1 %257, label %273, label %258

258:                                              ; preds = %255
  %259 = getelementptr inbounds [512 x i8], [512 x i8]* %5, i32 0, i32 0
  %260 = call i8* @strcpy(i8* getelementptr inbounds (%struct.data2, %struct.data2* @cfig, i32 0, i32 1, i64 0, i32 1, i32 0), i8* %259) #2
  %261 = call i64 @strlen(i8* getelementptr inbounds (%struct.data2, %struct.data2* @cfig, i32 0, i32 1, i64 0, i32 1, i32 0)) #16
  %262 = sub i64 %261, 1
  %263 = getelementptr inbounds [256 x i8], [256 x i8]* getelementptr inbounds (%struct.data2, %struct.data2* @cfig, i32 0, i32 1, i64 0, i32 1), i64 0, i64 %262
  %264 = load i8, i8* %263, align 1
  %265 = sext i8 %264 to i32
  %266 = load i8, i8* @fileSep, align 1
  %267 = sext i8 %266 to i32
  %268 = icmp ne i32 %265, %267
  br i1 %268, label %269, label %272

269:                                              ; preds = %258
  %270 = load i8, i8* @fileSep, align 1
  store i8 %270, i8* getelementptr inbounds ([256 x i8], [256 x i8]* @tempbuff, i64 0, i64 0), align 16
  store i8 0, i8* getelementptr inbounds ([256 x i8], [256 x i8]* @tempbuff, i64 0, i64 1), align 1
  %271 = call i8* @strcat(i8* getelementptr inbounds (%struct.data2, %struct.data2* @cfig, i32 0, i32 1, i64 0, i32 1, i32 0), i8* getelementptr inbounds ([256 x i8], [256 x i8]* @tempbuff, i32 0, i32 0)) #2
  br label %272

272:                                              ; preds = %269, %258
  br label %290

273:                                              ; preds = %255, %252
  %274 = load i8, i8* getelementptr inbounds (%struct.data2, %struct.data2* @cfig, i32 0, i32 1, i64 0, i32 0, i64 0), align 8
  %275 = icmp ne i8 %274, 0
  br i1 %275, label %276, label %279

276:                                              ; preds = %273
  %277 = getelementptr inbounds [512 x i8], [512 x i8]* %4, i32 0, i32 0
  %278 = call i32 (i8*, i8*, ...) @sprintf(i8* getelementptr inbounds ([512 x i8], [512 x i8]* @logBuff, i32 0, i32 0), i8* getelementptr inbounds ([60 x i8], [60 x i8]* @.str.61, i32 0, i32 0), i8* %277) #2
  call void @_Z7logMessPch(i8* getelementptr inbounds ([512 x i8], [512 x i8]* @logBuff, i32 0, i32 0), i8 zeroext 1)
  br label %289

279:                                              ; preds = %273
  %280 = load i8, i8* getelementptr inbounds (%struct.data2, %struct.data2* @cfig, i32 0, i32 1, i64 0, i32 1, i64 0), align 8
  %281 = icmp ne i8 %280, 0
  br i1 %281, label %282, label %285

282:                                              ; preds = %279
  %283 = getelementptr inbounds [512 x i8], [512 x i8]* %4, i32 0, i32 0
  %284 = call i32 (i8*, i8*, ...) @sprintf(i8* getelementptr inbounds ([512 x i8], [512 x i8]* @logBuff, i32 0, i32 0), i8* getelementptr inbounds ([43 x i8], [43 x i8]* @.str.65, i32 0, i32 0), i8* %283) #2
  call void @_Z7logMessPch(i8* getelementptr inbounds ([512 x i8], [512 x i8]* @logBuff, i32 0, i32 0), i8 zeroext 1)
  br label %288

285:                                              ; preds = %279
  %286 = getelementptr inbounds [512 x i8], [512 x i8]* %4, i32 0, i32 0
  %287 = call i32 (i8*, i8*, ...) @sprintf(i8* getelementptr inbounds ([512 x i8], [512 x i8]* @logBuff, i32 0, i32 0), i8* getelementptr inbounds ([58 x i8], [58 x i8]* @.str.66, i32 0, i32 0), i8* %286) #2
  call void @_Z7logMessPch(i8* getelementptr inbounds ([512 x i8], [512 x i8]* @logBuff, i32 0, i32 0), i8 zeroext 1)
  br label %288

288:                                              ; preds = %285, %282
  br label %289

289:                                              ; preds = %288, %276
  br label %290

290:                                              ; preds = %289, %272
  br label %291

291:                                              ; preds = %290, %251
  br label %107

292:                                              ; preds = %107
  br label %293

293:                                              ; preds = %292, %103
  store i8 1, i8* getelementptr inbounds (%struct.data2, %struct.data2* @cfig, i32 0, i32 6), align 8
  %294 = call %struct._IO_FILE* @_Z11openSectionPKchPc(i8* getelementptr inbounds ([13 x i8], [13 x i8]* @.str.67, i32 0, i32 0), i8 zeroext 1, i8* getelementptr inbounds ([256 x i8], [256 x i8]* @iniFile, i32 0, i32 0))
  store %struct._IO_FILE* %294, %struct._IO_FILE** %7, align 8
  %295 = icmp ne %struct._IO_FILE* %294, null
  br i1 %295, label %296, label %442

296:                                              ; preds = %293
  br label %297

297:                                              ; preds = %440, %296
  %298 = getelementptr inbounds [512 x i8], [512 x i8]* %4, i32 0, i32 0
  %299 = load %struct._IO_FILE*, %struct._IO_FILE** %7, align 8
  %300 = call i8* @_Z11readSectionPcP8_IO_FILE(i8* %298, %struct._IO_FILE* %299)
  %301 = icmp ne i8* %300, null
  br i1 %301, label %302, label %441

302:                                              ; preds = %297
  %303 = getelementptr inbounds [512 x i8], [512 x i8]* %5, i32 0, i32 0
  %304 = getelementptr inbounds [512 x i8], [512 x i8]* %6, i32 0, i32 0
  %305 = getelementptr inbounds [512 x i8], [512 x i8]* %4, i32 0, i32 0
  call void @_Z7mySplitPcS_S_c(i8* %303, i8* %304, i8* %305, i8 signext 61)
  %306 = getelementptr inbounds [512 x i8], [512 x i8]* %6, i32 0, i32 0
  %307 = call i64 @strlen(i8* %306) #16
  %308 = icmp ne i64 %307, 0
  br i1 %308, label %309, label %440

309:                                              ; preds = %302
  %310 = getelementptr inbounds [512 x i8], [512 x i8]* %5, i32 0, i32 0
  %311 = call i32 @strcasecmp(i8* %310, i8* getelementptr inbounds ([9 x i8], [9 x i8]* @.str.68, i32 0, i32 0)) #16
  %312 = icmp ne i32 %311, 0
  br i1 %312, label %353, label %313

313:                                              ; preds = %309
  %314 = getelementptr inbounds [512 x i8], [512 x i8]* %6, i32 0, i32 0
  %315 = call i64 @strlen(i8* %314) #16
  %316 = icmp ult i64 %315, 128
  br i1 %316, label %317, label %349

317:                                              ; preds = %313
  %318 = getelementptr inbounds [512 x i8], [512 x i8]* %6, i32 0, i32 0
  %319 = call %struct.passwd* @getpwnam(i8* %318)
  store %struct.passwd* %319, %struct.passwd** %11, align 8
  %320 = load %struct.passwd*, %struct.passwd** %11, align 8
  %321 = icmp ne %struct.passwd* %320, null
  br i1 %321, label %322, label %345

322:                                              ; preds = %317
  %323 = load %struct.passwd*, %struct.passwd** %11, align 8
  %324 = getelementptr inbounds %struct.passwd, %struct.passwd* %323, i32 0, i32 2
  %325 = load i32, i32* %324, align 8
  store i32 %325, i32* getelementptr inbounds (%struct.data2, %struct.data2* @cfig, i32 0, i32 4), align 8
  %326 = load %struct.passwd*, %struct.passwd** %11, align 8
  %327 = getelementptr inbounds %struct.passwd, %struct.passwd* %326, i32 0, i32 3
  %328 = load i32, i32* %327, align 4
  store i32 %328, i32* getelementptr inbounds (%struct.data2, %struct.data2* @cfig, i32 0, i32 5), align 4
  %329 = getelementptr inbounds [512 x i8], [512 x i8]* %6, i32 0, i32 0
  %330 = call i8* @strcpy(i8* getelementptr inbounds (%struct.data2, %struct.data2* @cfig, i32 0, i32 3, i32 0), i8* %329) #2
  %331 = load i8, i8* getelementptr inbounds (%struct.data2, %struct.data2* @cfig, i32 0, i32 1, i64 0, i32 1, i64 0), align 8
  %332 = icmp ne i8 %331, 0
  br i1 %332, label %344, label %333

333:                                              ; preds = %322
  %334 = load i32, i32* getelementptr inbounds (%struct.data2, %struct.data2* @cfig, i32 0, i32 4), align 8
  %335 = icmp ne i32 %334, 0
  br i1 %335, label %336, label %341

336:                                              ; preds = %333
  %337 = load %struct.passwd*, %struct.passwd** %11, align 8
  %338 = getelementptr inbounds %struct.passwd, %struct.passwd* %337, i32 0, i32 5
  %339 = load i8*, i8** %338, align 8
  %340 = call i32 (i8*, i8*, ...) @sprintf(i8* getelementptr inbounds (%struct.data2, %struct.data2* @cfig, i32 0, i32 1, i64 0, i32 1, i32 0), i8* getelementptr inbounds ([4 x i8], [4 x i8]* @.str.69, i32 0, i32 0), i8* %339) #2
  br label %343

341:                                              ; preds = %333
  %342 = call i8* @strcpy(i8* getelementptr inbounds (%struct.data2, %struct.data2* @cfig, i32 0, i32 1, i64 0, i32 1, i32 0), i8* getelementptr inbounds ([7 x i8], [7 x i8]* @.str.70, i32 0, i32 0)) #2
  br label %343

343:                                              ; preds = %341, %336
